; Listing generated by Microsoft (R) Optimizing Compiler Version 17.00.61030.0 

	TITLE	C:\Users\Simon\Documents\Visual Studio 2012\Projects\Stereoscopic\Stereoscopic.cpp
	.686P
	.XMM
	include listing.inc
	.model	flat

INCLUDELIB LIBCMTD
INCLUDELIB OLDNAMES

PUBLIC	?_Min@?$AtlLimits@K@ATL@@2KB			; ATL::AtlLimits<unsigned long>::_Min
PUBLIC	?_Max@?$AtlLimits@K@ATL@@2KB			; ATL::AtlLimits<unsigned long>::_Max
PUBLIC	?value@?$integral_constant@_N$00@std@@2_NB	; std::integral_constant<bool,1>::value
PUBLIC	?is_signed@?$numeric_limits@J@std@@2_NB		; std::numeric_limits<long>::is_signed
PUBLIC	?_Min@?$AtlLimits@_J@ATL@@2_JB			; ATL::AtlLimits<__int64>::_Min
PUBLIC	?_Max@?$AtlLimits@_J@ATL@@2_JB			; ATL::AtlLimits<__int64>::_Max
PUBLIC	?collate@?$_Locbase@H@std@@2HB			; std::_Locbase<int>::collate
PUBLIC	?chDirSep@ATL@@3_WB				; ATL::chDirSep
PUBLIC	?digits@?$numeric_limits@J@std@@2HB		; std::numeric_limits<long>::digits
PUBLIC	?chRightBracket@ATL@@3_WB			; ATL::chRightBracket
PUBLIC	?ctype@?$_Locbase@H@std@@2HB			; std::_Locbase<int>::ctype
PUBLIC	?chLeftBracket@ATL@@3_WB			; ATL::chLeftBracket
PUBLIC	?chQuote@ATL@@3_WB				; ATL::chQuote
PUBLIC	?monetary@?$_Locbase@H@std@@2HB			; std::_Locbase<int>::monetary
PUBLIC	?chEquals@ATL@@3_WB				; ATL::chEquals
PUBLIC	?digits10@?$numeric_limits@J@std@@2HB		; std::numeric_limits<long>::digits10
PUBLIC	?szStringVal@ATL@@3QB_WB			; ATL::szStringVal
PUBLIC	?numeric@?$_Locbase@H@std@@2HB			; std::_Locbase<int>::numeric
PUBLIC	??_C@_13HADIAKP@?$AAS?$AA?$AA@			; `string'
PUBLIC	?multiszStringVal@ATL@@3QB_WB			; ATL::multiszStringVal
PUBLIC	?time@?$_Locbase@H@std@@2HB			; std::_Locbase<int>::time
PUBLIC	??_C@_13LHMFKAAD@?$AAM?$AA?$AA@			; `string'
PUBLIC	?szDwordVal@ATL@@3QB_WB				; ATL::szDwordVal
PUBLIC	?_Min@?$AtlLimits@_K@ATL@@2_KB			; ATL::AtlLimits<unsigned __int64>::_Min
PUBLIC	?messages@?$_Locbase@H@std@@2HB			; std::_Locbase<int>::messages
PUBLIC	??_C@_13MKMNOPIJ@?$AAD?$AA?$AA@			; `string'
PUBLIC	?_Max@?$AtlLimits@_K@ATL@@2_KB			; ATL::AtlLimits<unsigned __int64>::_Max
PUBLIC	?szBinaryVal@ATL@@3QB_WB			; ATL::szBinaryVal
PUBLIC	?all@?$_Locbase@H@std@@2HB			; std::_Locbase<int>::all
PUBLIC	??_C@_13OPKGLAFF@?$AAB?$AA?$AA@			; `string'
PUBLIC	?szValToken@ATL@@3QB_WB				; ATL::szValToken
PUBLIC	?none@?$_Locbase@H@std@@2HB			; std::_Locbase<int>::none
PUBLIC	??_C@_17LLMMEOJD@?$AAV?$AAa?$AAl?$AA?$AA@	; `string'
PUBLIC	?szForceRemove@ATL@@3QB_WB			; ATL::szForceRemove
PUBLIC	??_C@_1BI@JFAIJMHL@?$AAF?$AAo?$AAr?$AAc?$AAe?$AAR?$AAe?$AAm?$AAo?$AAv?$AAe?$AA?$AA@ ; `string'
PUBLIC	?szNoRemove@ATL@@3QB_WB				; ATL::szNoRemove
PUBLIC	??_C@_1BC@GCKHIPE@?$AAN?$AAo?$AAR?$AAe?$AAm?$AAo?$AAv?$AAe?$AA?$AA@ ; `string'
PUBLIC	?szDelete@ATL@@3QB_WB				; ATL::szDelete
PUBLIC	??_C@_1O@JDLOHAN@?$AAD?$AAe?$AAl?$AAe?$AAt?$AAe?$AA?$AA@ ; `string'
PUBLIC	__GUID_fc4801a3_2ba9_11cf_a229_00aa003d7352
PUBLIC	?is_signed@?$numeric_limits@K@std@@2_NB		; std::numeric_limits<unsigned long>::is_signed
PUBLIC	?digits@?$numeric_limits@K@std@@2HB		; std::numeric_limits<unsigned long>::digits
PUBLIC	?digits10@?$numeric_limits@K@std@@2HB		; std::numeric_limits<unsigned long>::digits10
PUBLIC	?Cube@@3PAVCModel@@A				; Cube
PUBLIC	?Stars@@3PAVCModel@@A				; Stars
PUBLIC	?Crate@@3PAVCModel@@A				; Crate
PUBLIC	?Ground@@3PAVCModel@@A				; Ground
PUBLIC	?MainCamera@@3PAVCCamera@@A			; MainCamera
PUBLIC	?LeftTexture@@3PAUID3D10Texture2D@@A		; LeftTexture
PUBLIC	?RightTexture@@3PAUID3D10Texture2D@@A		; RightTexture
PUBLIC	?LeftRenderTarget@@3PAUID3D10RenderTargetView@@A ; LeftRenderTarget
PUBLIC	?RightRenderTarget@@3PAUID3D10RenderTargetView@@A ; RightRenderTarget
PUBLIC	?LeftShaderResource@@3PAUID3D10ShaderResourceView@@A ; LeftShaderResource
PUBLIC	?RightShaderResource@@3PAUID3D10ShaderResourceView@@A ; RightShaderResource
PUBLIC	?Interocular@@3MA				; Interocular
PUBLIC	?_pAtlAutoThreadModule@ATL@@3PAUIAtlAutoThreadModule@1@A ; ATL::_pAtlAutoThreadModule
PUBLIC	?CubeDiffuseMap@@3PAUID3D10ShaderResourceView@@A ; CubeDiffuseMap
PUBLIC	?StarsDiffuseMap@@3PAUID3D10ShaderResourceView@@A ; StarsDiffuseMap
PUBLIC	?CrateDiffuseMap@@3PAUID3D10ShaderResourceView@@A ; CrateDiffuseMap
PUBLIC	?GroundDiffuseMap@@3PAUID3D10ShaderResourceView@@A ; GroundDiffuseMap
PUBLIC	?LightDiffuseMap@@3PAUID3D10ShaderResourceView@@A ; LightDiffuseMap
PUBLIC	?value@?$_Sizeof@U_Nil@std@@U12@U12@U12@U12@U12@U12@U12@@std@@2IB ; std::_Sizeof<std::_Nil,std::_Nil,std::_Nil,std::_Nil,std::_Nil,std::_Nil,std::_Nil,std::_Nil>::value
PUBLIC	?is_signed@?$numeric_limits@_J@std@@2_NB	; std::numeric_limits<__int64>::is_signed
PUBLIC	?digits@?$numeric_limits@_J@std@@2HB		; std::numeric_limits<__int64>::digits
PUBLIC	?digits10@?$numeric_limits@_J@std@@2HB		; std::numeric_limits<__int64>::digits10
PUBLIC	?SpecularPower@@3MA				; SpecularPower
PUBLIC	?Light1@@3PAVCModel@@A				; Light1
PUBLIC	?Light2@@3PAVCModel@@A				; Light2
PUBLIC	?Effect@@3PAUID3D10Effect@@A			; Effect
PUBLIC	?VertexLitTexTechnique@@3PAUID3D10EffectTechnique@@A ; VertexLitTexTechnique
PUBLIC	?AdditiveTexTintTechnique@@3PAUID3D10EffectTechnique@@A ; AdditiveTexTintTechnique
PUBLIC	?AnaglyphTechnique@@3PAUID3D10EffectTechnique@@A ; AnaglyphTechnique
PUBLIC	?WorldMatrixVar@@3PAUID3D10EffectMatrixVariable@@A ; WorldMatrixVar
PUBLIC	?ViewMatrixVar@@3PAUID3D10EffectMatrixVariable@@A ; ViewMatrixVar
PUBLIC	?ProjMatrixVar@@3PAUID3D10EffectMatrixVariable@@A ; ProjMatrixVar
PUBLIC	?ViewProjMatrixVar@@3PAUID3D10EffectMatrixVariable@@A ; ViewProjMatrixVar
PUBLIC	?DiffuseMapVar@@3PAUID3D10EffectShaderResourceVariable@@A ; DiffuseMapVar
PUBLIC	?LeftViewVar@@3PAUID3D10EffectShaderResourceVariable@@A ; LeftViewVar
PUBLIC	?RightViewVar@@3PAUID3D10EffectShaderResourceVariable@@A ; RightViewVar
PUBLIC	?CameraPosVar@@3PAUID3D10EffectVectorVariable@@A ; CameraPosVar
PUBLIC	?Light1PosVar@@3PAUID3D10EffectVectorVariable@@A ; Light1PosVar
PUBLIC	?Light1ColourVar@@3PAUID3D10EffectVectorVariable@@A ; Light1ColourVar
PUBLIC	?Light2PosVar@@3PAUID3D10EffectVectorVariable@@A ; Light2PosVar
PUBLIC	?Light2ColourVar@@3PAUID3D10EffectVectorVariable@@A ; Light2ColourVar
PUBLIC	?AmbientColourVar@@3PAUID3D10EffectVectorVariable@@A ; AmbientColourVar
PUBLIC	?SpecularPowerVar@@3PAUID3D10EffectScalarVariable@@A ; SpecularPowerVar
PUBLIC	?TintColourVar@@3PAUID3D10EffectVectorVariable@@A ; TintColourVar
PUBLIC	?SwapChain@@3PAUIDXGISwapChain@@A		; SwapChain
PUBLIC	?DepthStencil@@3PAUID3D10Texture2D@@A		; DepthStencil
PUBLIC	?DepthStencilView@@3PAUID3D10DepthStencilView@@A ; DepthStencilView
PUBLIC	?is_signed@?$numeric_limits@_K@std@@2_NB	; std::numeric_limits<unsigned __int64>::is_signed
PUBLIC	?BackBufferRenderTarget@@3PAUID3D10RenderTargetView@@A ; BackBufferRenderTarget
PUBLIC	?HInst@@3PAUHINSTANCE__@@A			; HInst
PUBLIC	?HWnd@@3PAUHWND__@@A				; HWnd
PUBLIC	?digits@?$numeric_limits@_K@std@@2HB		; std::numeric_limits<unsigned __int64>::digits
PUBLIC	?digits10@?$numeric_limits@_K@std@@2HB		; std::numeric_limits<unsigned __int64>::digits10
PUBLIC	_CLSID_Registrar
PUBLIC	__GUID_9b7e4c04_342c_4106_a19f_4f2704f689f0
PUBLIC	?digits@?$numeric_limits@M@std@@2HB		; std::numeric_limits<float>::digits
PUBLIC	?VT@?$CVarTypeInfo@D@ATL@@2GB			; ATL::CVarTypeInfo<char>::VT
PUBLIC	?digits10@?$numeric_limits@M@std@@2HB		; std::numeric_limits<float>::digits10
PUBLIC	?pmField@?$CVarTypeInfo@D@ATL@@2QQtagVARIANT@@DQ3@ ; ATL::CVarTypeInfo<char>::pmField
PUBLIC	?max_digits10@?$numeric_limits@M@std@@2HB	; std::numeric_limits<float>::max_digits10
PUBLIC	?max_exponent@?$numeric_limits@M@std@@2HB	; std::numeric_limits<float>::max_exponent
PUBLIC	?max_exponent10@?$numeric_limits@M@std@@2HB	; std::numeric_limits<float>::max_exponent10
PUBLIC	?VT@?$CVarTypeInfo@E@ATL@@2GB			; ATL::CVarTypeInfo<unsigned char>::VT
PUBLIC	?pmField@?$CVarTypeInfo@E@ATL@@2QQtagVARIANT@@EQ3@ ; ATL::CVarTypeInfo<unsigned char>::pmField
PUBLIC	?min_exponent@?$numeric_limits@M@std@@2HB	; std::numeric_limits<float>::min_exponent
PUBLIC	?min_exponent10@?$numeric_limits@M@std@@2HB	; std::numeric_limits<float>::min_exponent10
PUBLIC	_IID_IRegistrar
PUBLIC	?VT@?$CVarTypeInfo@PAD@ATL@@2GB			; ATL::CVarTypeInfo<char *>::VT
PUBLIC	?pmField@?$CVarTypeInfo@PAD@ATL@@2QQtagVARIANT@@PADQ3@ ; ATL::CVarTypeInfo<char *>::pmField
PUBLIC	?VT@?$CVarTypeInfo@PAE@ATL@@2GB			; ATL::CVarTypeInfo<unsigned char *>::VT
PUBLIC	?pmField@?$CVarTypeInfo@PAE@ATL@@2QQtagVARIANT@@PAEQ3@ ; ATL::CVarTypeInfo<unsigned char *>::pmField
PUBLIC	?table_size@?$ctype@D@std@@2IB			; std::ctype<char>::table_size
PUBLIC	__GUID_00000109_0000_0000_c000_000000000046
PUBLIC	?digits@?$numeric_limits@N@std@@2HB		; std::numeric_limits<double>::digits
PUBLIC	?VT@?$CVarTypeInfo@F@ATL@@2GB			; ATL::CVarTypeInfo<short>::VT
PUBLIC	?digits10@?$numeric_limits@N@std@@2HB		; std::numeric_limits<double>::digits10
PUBLIC	?pmField@?$CVarTypeInfo@F@ATL@@2QQtagVARIANT@@FQ3@ ; ATL::CVarTypeInfo<short>::pmField
PUBLIC	__GUID_7fd52380_4e07_101b_ae2d_08002b2ec713
PUBLIC	?max_digits10@?$numeric_limits@N@std@@2HB	; std::numeric_limits<double>::max_digits10
PUBLIC	?MAX_VALUE@CRegParser@ATL@@1HB			; ATL::CRegParser::MAX_VALUE
PUBLIC	?max_exponent@?$numeric_limits@N@std@@2HB	; std::numeric_limits<double>::max_exponent
PUBLIC	?max_exponent10@?$numeric_limits@N@std@@2HB	; std::numeric_limits<double>::max_exponent10
PUBLIC	?VT@?$CVarTypeInfo@PAF@ATL@@2GB			; ATL::CVarTypeInfo<short *>::VT
PUBLIC	?pmField@?$CVarTypeInfo@PAF@ATL@@2QQtagVARIANT@@PAFQ3@ ; ATL::CVarTypeInfo<short *>::pmField
PUBLIC	?min_exponent@?$numeric_limits@N@std@@2HB	; std::numeric_limits<double>::min_exponent
PUBLIC	?min_exponent10@?$numeric_limits@N@std@@2HB	; std::numeric_limits<double>::min_exponent10
PUBLIC	?VT@?$CVarTypeInfo@G@ATL@@2GB			; ATL::CVarTypeInfo<unsigned short>::VT
PUBLIC	?pmField@?$CVarTypeInfo@G@ATL@@2QQtagVARIANT@@GQ3@ ; ATL::CVarTypeInfo<unsigned short>::pmField
PUBLIC	?VT@?$CVarTypeInfo@PAG@ATL@@2GB			; ATL::CVarTypeInfo<unsigned short *>::VT
PUBLIC	?pmField@?$CVarTypeInfo@PAG@ATL@@2QQtagVARIANT@@PAGQ3@ ; ATL::CVarTypeInfo<unsigned short *>::pmField
PUBLIC	?rgszNeverDelete@CRegParser@ATL@@1QBQB_WB	; ATL::CRegParser::rgszNeverDelete
PUBLIC	?cbNeverDelete@CRegParser@ATL@@1HB		; ATL::CRegParser::cbNeverDelete
PUBLIC	?MAX_TYPE@CRegParser@ATL@@1HB			; ATL::CRegParser::MAX_TYPE
PUBLIC	?digits@?$numeric_limits@O@std@@2HB		; std::numeric_limits<long double>::digits
PUBLIC	?VT@?$CVarTypeInfo@H@ATL@@2GB			; ATL::CVarTypeInfo<int>::VT
PUBLIC	?digits10@?$numeric_limits@O@std@@2HB		; std::numeric_limits<long double>::digits10
PUBLIC	?pmField@?$CVarTypeInfo@H@ATL@@2QQtagVARIANT@@HQ3@ ; ATL::CVarTypeInfo<int>::pmField
PUBLIC	?max_digits10@?$numeric_limits@O@std@@2HB	; std::numeric_limits<long double>::max_digits10
PUBLIC	?max_exponent@?$numeric_limits@O@std@@2HB	; std::numeric_limits<long double>::max_exponent
PUBLIC	?max_exponent10@?$numeric_limits@O@std@@2HB	; std::numeric_limits<long double>::max_exponent10
PUBLIC	?VT@?$CVarTypeInfo@PAH@ATL@@2GB			; ATL::CVarTypeInfo<int *>::VT
PUBLIC	?pmField@?$CVarTypeInfo@PAH@ATL@@2QQtagVARIANT@@PAHQ3@ ; ATL::CVarTypeInfo<int *>::pmField
PUBLIC	?min_exponent@?$numeric_limits@O@std@@2HB	; std::numeric_limits<long double>::min_exponent
PUBLIC	?min_exponent10@?$numeric_limits@O@std@@2HB	; std::numeric_limits<long double>::min_exponent10
PUBLIC	?VT@?$CVarTypeInfo@I@ATL@@2GB			; ATL::CVarTypeInfo<unsigned int>::VT
PUBLIC	?pmField@?$CVarTypeInfo@I@ATL@@2QQtagVARIANT@@IQ3@ ; ATL::CVarTypeInfo<unsigned int>::pmField
PUBLIC	?VT@?$CVarTypeInfo@PAI@ATL@@2GB			; ATL::CVarTypeInfo<unsigned int *>::VT
PUBLIC	_IID_IDocHostUIHandlerDispatch
PUBLIC	?pmField@?$CVarTypeInfo@PAI@ATL@@2QQtagVARIANT@@PAIQ3@ ; ATL::CVarTypeInfo<unsigned int *>::pmField
PUBLIC	?VT@?$CVarTypeInfo@J@ATL@@2GB			; ATL::CVarTypeInfo<long>::VT
PUBLIC	?pmField@?$CVarTypeInfo@J@ATL@@2QQtagVARIANT@@JQ3@ ; ATL::CVarTypeInfo<long>::pmField
PUBLIC	?VT@?$CVarTypeInfo@PAJ@ATL@@2GB			; ATL::CVarTypeInfo<long *>::VT
PUBLIC	?pmField@?$CVarTypeInfo@PAJ@ATL@@2QQtagVARIANT@@PAJQ3@ ; ATL::CVarTypeInfo<long *>::pmField
PUBLIC	?VT@?$CVarTypeInfo@K@ATL@@2GB			; ATL::CVarTypeInfo<unsigned long>::VT
PUBLIC	?pmField@?$CVarTypeInfo@K@ATL@@2QQtagVARIANT@@KQ3@ ; ATL::CVarTypeInfo<unsigned long>::pmField
PUBLIC	?VT@?$CVarTypeInfo@PAK@ATL@@2GB			; ATL::CVarTypeInfo<unsigned long *>::VT
PUBLIC	?pmField@?$CVarTypeInfo@PAK@ATL@@2QQtagVARIANT@@PAKQ3@ ; ATL::CVarTypeInfo<unsigned long *>::pmField
PUBLIC	?VT@?$CVarTypeInfo@_J@ATL@@2GB			; ATL::CVarTypeInfo<__int64>::VT
PUBLIC	?pmField@?$CVarTypeInfo@_J@ATL@@2QQtagVARIANT@@_JQ3@ ; ATL::CVarTypeInfo<__int64>::pmField
PUBLIC	?_pAtlModule@ATL@@3PAVCAtlModule@1@A		; ATL::_pAtlModule
PUBLIC	?VT@?$CVarTypeInfo@PA_J@ATL@@2GB		; ATL::CVarTypeInfo<__int64 *>::VT
PUBLIC	?pmField@?$CVarTypeInfo@PA_J@ATL@@2QQtagVARIANT@@PA_JQ3@ ; ATL::CVarTypeInfo<__int64 *>::pmField
PUBLIC	?m_libid@CAtlModule@ATL@@2U_GUID@@A		; ATL::CAtlModule::m_libid
PUBLIC	?VT@?$CVarTypeInfo@_K@ATL@@2GB			; ATL::CVarTypeInfo<unsigned __int64>::VT
PUBLIC	?pmField@?$CVarTypeInfo@_K@ATL@@2QQtagVARIANT@@_KQ3@ ; ATL::CVarTypeInfo<unsigned __int64>::pmField
PUBLIC	?VT@?$CVarTypeInfo@PA_K@ATL@@2GB		; ATL::CVarTypeInfo<unsigned __int64 *>::VT
PUBLIC	?pmField@?$CVarTypeInfo@PA_K@ATL@@2QQtagVARIANT@@PA_KQ3@ ; ATL::CVarTypeInfo<unsigned __int64 *>::pmField
PUBLIC	?VT@?$CVarTypeInfo@M@ATL@@2GB			; ATL::CVarTypeInfo<float>::VT
PUBLIC	?pmField@?$CVarTypeInfo@M@ATL@@2QQtagVARIANT@@MQ3@ ; ATL::CVarTypeInfo<float>::pmField
PUBLIC	?VT@?$CVarTypeInfo@PAM@ATL@@2GB			; ATL::CVarTypeInfo<float *>::VT
PUBLIC	?pmField@?$CVarTypeInfo@PAM@ATL@@2QQtagVARIANT@@PAMQ3@ ; ATL::CVarTypeInfo<float *>::pmField
PUBLIC	?VT@?$CVarTypeInfo@N@ATL@@2GB			; ATL::CVarTypeInfo<double>::VT
PUBLIC	?pmField@?$CVarTypeInfo@N@ATL@@2QQtagVARIANT@@NQ3@ ; ATL::CVarTypeInfo<double>::pmField
PUBLIC	?VT@?$CVarTypeInfo@PAN@ATL@@2GB			; ATL::CVarTypeInfo<double *>::VT
PUBLIC	?pmField@?$CVarTypeInfo@PAN@ATL@@2QQtagVARIANT@@PANQ3@ ; ATL::CVarTypeInfo<double *>::pmField
PUBLIC	__GUID_00000146_0000_0000_c000_000000000046
PUBLIC	?VT@?$CVarTypeInfo@PAUtagVARIANT@@@ATL@@2GB	; ATL::CVarTypeInfo<tagVARIANT *>::VT
PUBLIC	?VT@?$CVarTypeInfo@PA_W@ATL@@2GB		; ATL::CVarTypeInfo<wchar_t *>::VT
PUBLIC	?pmField@?$CVarTypeInfo@PA_W@ATL@@2QQtagVARIANT@@PA_WQ3@ ; ATL::CVarTypeInfo<wchar_t *>::pmField
PUBLIC	?VT@?$CVarTypeInfo@PAPA_W@ATL@@2GB		; ATL::CVarTypeInfo<wchar_t * *>::VT
PUBLIC	?pmField@?$CVarTypeInfo@PAPA_W@ATL@@2QQtagVARIANT@@PAPA_WQ3@ ; ATL::CVarTypeInfo<wchar_t * *>::pmField
PUBLIC	?has_denorm@_Num_base@std@@2W4float_denorm_style@2@B ; std::_Num_base::has_denorm
PUBLIC	?has_denorm_loss@_Num_base@std@@2_NB		; std::_Num_base::has_denorm_loss
PUBLIC	?VT@?$CVarTypeInfo@PAUIUnknown@@@ATL@@2GB	; ATL::CVarTypeInfo<IUnknown *>::VT
PUBLIC	?pmField@?$CVarTypeInfo@PAUIUnknown@@@ATL@@2QQtagVARIANT@@PAUIUnknown@@Q3@ ; ATL::CVarTypeInfo<IUnknown *>::pmField
PUBLIC	?has_infinity@_Num_base@std@@2_NB		; std::_Num_base::has_infinity
PUBLIC	?has_quiet_NaN@_Num_base@std@@2_NB		; std::_Num_base::has_quiet_NaN
PUBLIC	_IID_IAxWinHostWindow
PUBLIC	?has_signaling_NaN@_Num_base@std@@2_NB		; std::_Num_base::has_signaling_NaN
PUBLIC	?is_bounded@_Num_base@std@@2_NB			; std::_Num_base::is_bounded
PUBLIC	?VT@?$CVarTypeInfo@PAPAUIUnknown@@@ATL@@2GB	; ATL::CVarTypeInfo<IUnknown * *>::VT
PUBLIC	?is_exact@_Num_base@std@@2_NB			; std::_Num_base::is_exact
PUBLIC	?pmField@?$CVarTypeInfo@PAPAUIUnknown@@@ATL@@2QQtagVARIANT@@PAPAUIUnknown@@Q3@ ; ATL::CVarTypeInfo<IUnknown * *>::pmField
PUBLIC	?is_iec559@_Num_base@std@@2_NB			; std::_Num_base::is_iec559
PUBLIC	?m_bInitFailed@CAtlBaseModule@ATL@@2_NA		; ATL::CAtlBaseModule::m_bInitFailed
PUBLIC	?is_integer@_Num_base@std@@2_NB			; std::_Num_base::is_integer
PUBLIC	?is_modulo@_Num_base@std@@2_NB			; std::_Num_base::is_modulo
PUBLIC	?VT@?$CVarTypeInfo@PAUIDispatch@@@ATL@@2GB	; ATL::CVarTypeInfo<IDispatch *>::VT
PUBLIC	?is_signed@_Num_base@std@@2_NB			; std::_Num_base::is_signed
PUBLIC	?value@?$_Sizeof@HU_Nil@std@@U12@U12@U12@U12@U12@U12@@std@@2IB ; std::_Sizeof<int,std::_Nil,std::_Nil,std::_Nil,std::_Nil,std::_Nil,std::_Nil,std::_Nil>::value
PUBLIC	?pmField@?$CVarTypeInfo@PAUIDispatch@@@ATL@@2QQtagVARIANT@@PAUIDispatch@@Q3@ ; ATL::CVarTypeInfo<IDispatch *>::pmField
PUBLIC	?is_specialized@_Num_base@std@@2_NB		; std::_Num_base::is_specialized
PUBLIC	?tinyness_before@_Num_base@std@@2_NB		; std::_Num_base::tinyness_before
PUBLIC	__GUID_00000000_0000_0000_c000_000000000046
PUBLIC	?traps@_Num_base@std@@2_NB			; std::_Num_base::traps
PUBLIC	?round_style@_Num_base@std@@2W4float_round_style@2@B ; std::_Num_base::round_style
PUBLIC	?VT@?$CVarTypeInfo@PAPAUIDispatch@@@ATL@@2GB	; ATL::CVarTypeInfo<IDispatch * *>::VT
PUBLIC	?pmField@?$CVarTypeInfo@PAPAUIDispatch@@@ATL@@2QQtagVARIANT@@PAPAUIDispatch@@Q3@ ; ATL::CVarTypeInfo<IDispatch * *>::pmField
PUBLIC	?digits@_Num_base@std@@2HB			; std::_Num_base::digits
PUBLIC	?digits10@_Num_base@std@@2HB			; std::_Num_base::digits10
PUBLIC	?max_digits10@_Num_base@std@@2HB		; std::_Num_base::max_digits10
PUBLIC	?max_exponent@_Num_base@std@@2HB		; std::_Num_base::max_exponent
PUBLIC	?VT@?$CVarTypeInfo@TtagCY@@@ATL@@2GB		; ATL::CVarTypeInfo<tagCY>::VT
PUBLIC	?max_exponent10@_Num_base@std@@2HB		; std::_Num_base::max_exponent10
PUBLIC	?pmField@?$CVarTypeInfo@TtagCY@@@ATL@@2QQtagVARIANT@@TtagCY@@Q3@ ; ATL::CVarTypeInfo<tagCY>::pmField
PUBLIC	__GUID_00020400_0000_0000_c000_000000000046
PUBLIC	__GUID_b196b284_bab4_101a_b69c_00aa00341d07
PUBLIC	?min_exponent@_Num_base@std@@2HB		; std::_Num_base::min_exponent
PUBLIC	?min_exponent10@_Num_base@std@@2HB		; std::_Num_base::min_exponent10
PUBLIC	?radix@_Num_base@std@@2HB			; std::_Num_base::radix
PUBLIC	?VT@?$CVarTypeInfo@PATtagCY@@@ATL@@2GB		; ATL::CVarTypeInfo<tagCY *>::VT
PUBLIC	?pmField@?$CVarTypeInfo@PATtagCY@@@ATL@@2QQtagVARIANT@@PATtagCY@@Q3@ ; ATL::CVarTypeInfo<tagCY *>::pmField
PUBLIC	_LIBID_ATLLib
PUBLIC	?is_bounded@_Num_int_base@std@@2_NB		; std::_Num_int_base::is_bounded
PUBLIC	_IID_IAxWinHostWindowLic
PUBLIC	?is_exact@_Num_int_base@std@@2_NB		; std::_Num_int_base::is_exact
PUBLIC	?is_integer@_Num_int_base@std@@2_NB		; std::_Num_int_base::is_integer
PUBLIC	?is_modulo@_Num_int_base@std@@2_NB		; std::_Num_int_base::is_modulo
PUBLIC	?is_specialized@_Num_int_base@std@@2_NB		; std::_Num_int_base::is_specialized
PUBLIC	?radix@_Num_int_base@std@@2HB			; std::_Num_int_base::radix
PUBLIC	?has_denorm@_Num_float_base@std@@2W4float_denorm_style@2@B ; std::_Num_float_base::has_denorm
PUBLIC	?has_denorm_loss@_Num_float_base@std@@2_NB	; std::_Num_float_base::has_denorm_loss
PUBLIC	?has_infinity@_Num_float_base@std@@2_NB		; std::_Num_float_base::has_infinity
PUBLIC	?has_quiet_NaN@_Num_float_base@std@@2_NB	; std::_Num_float_base::has_quiet_NaN
PUBLIC	?has_signaling_NaN@_Num_float_base@std@@2_NB	; std::_Num_float_base::has_signaling_NaN
PUBLIC	?is_bounded@_Num_float_base@std@@2_NB		; std::_Num_float_base::is_bounded
PUBLIC	?is_exact@_Num_float_base@std@@2_NB		; std::_Num_float_base::is_exact
PUBLIC	?is_iec559@_Num_float_base@std@@2_NB		; std::_Num_float_base::is_iec559
PUBLIC	_IID_IAxWinAmbientDispatch
PUBLIC	?is_integer@_Num_float_base@std@@2_NB		; std::_Num_float_base::is_integer
PUBLIC	?is_modulo@_Num_float_base@std@@2_NB		; std::_Num_float_base::is_modulo
PUBLIC	?is_signed@_Num_float_base@std@@2_NB		; std::_Num_float_base::is_signed
PUBLIC	?is_specialized@_Num_float_base@std@@2_NB	; std::_Num_float_base::is_specialized
PUBLIC	?tinyness_before@_Num_float_base@std@@2_NB	; std::_Num_float_base::tinyness_before
PUBLIC	?traps@_Num_float_base@std@@2_NB		; std::_Num_float_base::traps
PUBLIC	?_pModule@ATL@@3PAVCComModule@1@A		; ATL::_pModule
PUBLIC	?round_style@_Num_float_base@std@@2W4float_round_style@2@B ; std::_Num_float_base::round_style
PUBLIC	?radix@_Num_float_base@std@@2HB			; std::_Num_float_base::radix
PUBLIC	?is_signed@?$numeric_limits@D@std@@2_NB		; std::numeric_limits<char>::is_signed
PUBLIC	?digits@?$numeric_limits@D@std@@2HB		; std::numeric_limits<char>::digits
PUBLIC	?digits10@?$numeric_limits@D@std@@2HB		; std::numeric_limits<char>::digits10
PUBLIC	___pobjMapEntryFirst
PUBLIC	?is_signed@?$numeric_limits@_W@std@@2_NB	; std::numeric_limits<wchar_t>::is_signed
PUBLIC	___pobjMapEntryLast
PUBLIC	?digits@?$numeric_limits@_W@std@@2HB		; std::numeric_limits<wchar_t>::digits
PUBLIC	?digits10@?$numeric_limits@_W@std@@2HB		; std::numeric_limits<wchar_t>::digits10
PUBLIC	??_C@_1CK@OEKPKBNA@?$AAC?$AAo?$AAm?$AAp?$AAo?$AAn?$AAe?$AAn?$AAt?$AA?5?$AAC?$AAa?$AAt?$AAe?$AAg?$AAo?$AAr?$AAi?$AAe?$AAs?$AA?$AA@ ; `string'
PUBLIC	??_C@_1BC@NKMMNMGL@?$AAF?$AAi?$AAl?$AAe?$AAT?$AAy?$AAp?$AAe?$AA?$AA@ ; `string'
PUBLIC	??_C@_1BE@EKPAFMCP@?$AAI?$AAn?$AAt?$AAe?$AAr?$AAf?$AAa?$AAc?$AAe?$AA?$AA@ ; `string'
PUBLIC	?_pPerfRegFunc@ATL@@3P6AJPAUHINSTANCE__@@@ZA	; ATL::_pPerfRegFunc
PUBLIC	??_C@_1BC@MAICEHGI@?$AAH?$AAa?$AAr?$AAd?$AAw?$AAa?$AAr?$AAe?$AA?$AA@ ; `string'
PUBLIC	?_pPerfUnRegFunc@ATL@@3P6AJXZA			; ATL::_pPerfUnRegFunc
PUBLIC	??_C@_19HLLLM@?$AAM?$AAi?$AAm?$AAe?$AA?$AA@	; `string'
PUBLIC	?_AtlRegisterPerUser@ATL@@3_NA			; ATL::_AtlRegisterPerUser
PUBLIC	??_C@_17OMAOINJK@?$AAS?$AAA?$AAM?$AA?$AA@	; `string'
PUBLIC	??_C@_1BC@IBECJAAI@?$AAS?$AAE?$AAC?$AAU?$AAR?$AAI?$AAT?$AAY?$AA?$AA@ ; `string'
PUBLIC	??_C@_1O@GBFINDKL@?$AAS?$AAY?$AAS?$AAT?$AAE?$AAM?$AA?$AA@ ; `string'
PUBLIC	??_C@_1BC@EAHCMADO@?$AAS?$AAo?$AAf?$AAt?$AAw?$AAa?$AAr?$AAe?$AA?$AA@ ; `string'
PUBLIC	?skipws@?$_Iosb@H@std@@2W4_Fmtflags@12@B	; std::_Iosb<int>::skipws
PUBLIC	??_C@_1BA@JIHHIEDE@?$AAT?$AAy?$AAp?$AAe?$AAL?$AAi?$AAb?$AA?$AA@ ; `string'
PUBLIC	?unitbuf@?$_Iosb@H@std@@2W4_Fmtflags@12@B	; std::_Iosb<int>::unitbuf
PUBLIC	?uppercase@?$_Iosb@H@std@@2W4_Fmtflags@12@B	; std::_Iosb<int>::uppercase
PUBLIC	?showbase@?$_Iosb@H@std@@2W4_Fmtflags@12@B	; std::_Iosb<int>::showbase
PUBLIC	?is_modulo@?$numeric_limits@_N@std@@2_NB	; std::numeric_limits<bool>::is_modulo
PUBLIC	?showpoint@?$_Iosb@H@std@@2W4_Fmtflags@12@B	; std::_Iosb<int>::showpoint
PUBLIC	?is_signed@?$numeric_limits@_N@std@@2_NB	; std::numeric_limits<bool>::is_signed
PUBLIC	?showpos@?$_Iosb@H@std@@2W4_Fmtflags@12@B	; std::_Iosb<int>::showpos
PUBLIC	?digits@?$numeric_limits@_N@std@@2HB		; std::numeric_limits<bool>::digits
PUBLIC	?left@?$_Iosb@H@std@@2W4_Fmtflags@12@B		; std::_Iosb<int>::left
PUBLIC	?digits10@?$numeric_limits@_N@std@@2HB		; std::numeric_limits<bool>::digits10
PUBLIC	?right@?$_Iosb@H@std@@2W4_Fmtflags@12@B		; std::_Iosb<int>::right
PUBLIC	?internal@?$_Iosb@H@std@@2W4_Fmtflags@12@B	; std::_Iosb<int>::internal
PUBLIC	?dec@?$_Iosb@H@std@@2W4_Fmtflags@12@B		; std::_Iosb<int>::dec
PUBLIC	?oct@?$_Iosb@H@std@@2W4_Fmtflags@12@B		; std::_Iosb<int>::oct
PUBLIC	?hex@?$_Iosb@H@std@@2W4_Fmtflags@12@B		; std::_Iosb<int>::hex
PUBLIC	?scientific@?$_Iosb@H@std@@2W4_Fmtflags@12@B	; std::_Iosb<int>::scientific
PUBLIC	?fixed@?$_Iosb@H@std@@2W4_Fmtflags@12@B		; std::_Iosb<int>::fixed
PUBLIC	?hexfloat@?$_Iosb@H@std@@2W4_Fmtflags@12@B	; std::_Iosb<int>::hexfloat
PUBLIC	?boolalpha@?$_Iosb@H@std@@2W4_Fmtflags@12@B	; std::_Iosb<int>::boolalpha
PUBLIC	?_Stdio@?$_Iosb@H@std@@2W4_Fmtflags@12@B	; std::_Iosb<int>::_Stdio
PUBLIC	?is_signed@?$numeric_limits@C@std@@2_NB		; std::numeric_limits<signed char>::is_signed
PUBLIC	?adjustfield@?$_Iosb@H@std@@2W4_Fmtflags@12@B	; std::_Iosb<int>::adjustfield
PUBLIC	?digits@?$numeric_limits@C@std@@2HB		; std::numeric_limits<signed char>::digits
PUBLIC	?basefield@?$_Iosb@H@std@@2W4_Fmtflags@12@B	; std::_Iosb<int>::basefield
PUBLIC	?digits10@?$numeric_limits@C@std@@2HB		; std::numeric_limits<signed char>::digits10
PUBLIC	?value@?$integral_constant@I$0A@@std@@2IB	; std::integral_constant<unsigned int,0>::value
PUBLIC	?floatfield@?$_Iosb@H@std@@2W4_Fmtflags@12@B	; std::_Iosb<int>::floatfield
PUBLIC	?goodbit@?$_Iosb@H@std@@2W4_Iostate@12@B	; std::_Iosb<int>::goodbit
PUBLIC	?eofbit@?$_Iosb@H@std@@2W4_Iostate@12@B		; std::_Iosb<int>::eofbit
PUBLIC	?failbit@?$_Iosb@H@std@@2W4_Iostate@12@B	; std::_Iosb<int>::failbit
PUBLIC	?badbit@?$_Iosb@H@std@@2W4_Iostate@12@B		; std::_Iosb<int>::badbit
PUBLIC	__GUID_0002e012_0000_0000_c000_000000000046
PUBLIC	?_Hardfail@?$_Iosb@H@std@@2W4_Iostate@12@B	; std::_Iosb<int>::_Hardfail
PUBLIC	?in@?$_Iosb@H@std@@2W4_Openmode@12@B		; std::_Iosb<int>::in
PUBLIC	?out@?$_Iosb@H@std@@2W4_Openmode@12@B		; std::_Iosb<int>::out
PUBLIC	?ate@?$_Iosb@H@std@@2W4_Openmode@12@B		; std::_Iosb<int>::ate
PUBLIC	?s_pfnPrevHook@CNoUIAssertHook@ATL@@0P6AHHPADPAH@ZA ; ATL::CNoUIAssertHook::s_pfnPrevHook
PUBLIC	?is_signed@?$numeric_limits@E@std@@2_NB		; std::numeric_limits<unsigned char>::is_signed
PUBLIC	?app@?$_Iosb@H@std@@2W4_Openmode@12@B		; std::_Iosb<int>::app
PUBLIC	?digits@?$numeric_limits@E@std@@2HB		; std::numeric_limits<unsigned char>::digits
PUBLIC	?trunc@?$_Iosb@H@std@@2W4_Openmode@12@B		; std::_Iosb<int>::trunc
PUBLIC	?digits10@?$numeric_limits@E@std@@2HB		; std::numeric_limits<unsigned char>::digits10
PUBLIC	?_Nocreate@?$_Iosb@H@std@@2W4_Openmode@12@B	; std::_Iosb<int>::_Nocreate
PUBLIC	?_Noreplace@?$_Iosb@H@std@@2W4_Openmode@12@B	; std::_Iosb<int>::_Noreplace
PUBLIC	?binary@?$_Iosb@H@std@@2W4_Openmode@12@B	; std::_Iosb<int>::binary
PUBLIC	?beg@?$_Iosb@H@std@@2W4_Seekdir@12@B		; std::_Iosb<int>::beg
PUBLIC	?cur@?$_Iosb@H@std@@2W4_Seekdir@12@B		; std::_Iosb<int>::cur
PUBLIC	?end@?$_Iosb@H@std@@2W4_Seekdir@12@B		; std::_Iosb<int>::end
PUBLIC	?is_signed@?$numeric_limits@F@std@@2_NB		; std::numeric_limits<short>::is_signed
PUBLIC	?digits@?$numeric_limits@F@std@@2HB		; std::numeric_limits<short>::digits
PUBLIC	?digits10@?$numeric_limits@F@std@@2HB		; std::numeric_limits<short>::digits10
PUBLIC	?_Stream_err@failure@ios_base@std@@0W4io_errc@43@B ; std::ios_base::failure::_Stream_err
PUBLIC	?MAX_VERTEX_ELTS@CModel@@0HB			; CModel::MAX_VERTEX_ELTS
PUBLIC	?g_pd3dDevice@@3PAUID3D10Device@@A		; g_pd3dDevice
PUBLIC	?g_ViewportWidth@@3HA				; g_ViewportWidth
PUBLIC	?g_ViewportHeight@@3HA				; g_ViewportHeight
PUBLIC	?is_signed@?$numeric_limits@G@std@@2_NB		; std::numeric_limits<unsigned short>::is_signed
PUBLIC	?digits@?$numeric_limits@G@std@@2HB		; std::numeric_limits<unsigned short>::digits
PUBLIC	?digits10@?$numeric_limits@G@std@@2HB		; std::numeric_limits<unsigned short>::digits10
PUBLIC	??_C@_1M@KANJNLFF@?$AAC?$AAL?$AAS?$AAI?$AAD?$AA?$AA@ ; `string'
PUBLIC	_IID_IAxWinAmbientDispatchEx
PUBLIC	?is_signed@?$numeric_limits@H@std@@2_NB		; std::numeric_limits<int>::is_signed
PUBLIC	_IID_IInternalConnection
PUBLIC	??_C@_1M@EJNEECMJ@?$AAA?$AAp?$AAp?$AAI?$AAD?$AA?$AA@ ; `string'
PUBLIC	?digits@?$numeric_limits@H@std@@2HB		; std::numeric_limits<int>::digits
PUBLIC	?digits10@?$numeric_limits@H@std@@2HB		; std::numeric_limits<int>::digits10
PUBLIC	?_Min@?$AtlLimits@H@ATL@@2HB			; ATL::AtlLimits<int>::_Min
PUBLIC	?_Max@?$AtlLimits@H@ATL@@2HB			; ATL::AtlLimits<int>::_Max
PUBLIC	?is_signed@?$numeric_limits@I@std@@2_NB		; std::numeric_limits<unsigned int>::is_signed
PUBLIC	?_Min@?$AtlLimits@I@ATL@@2IB			; ATL::AtlLimits<unsigned int>::_Min
PUBLIC	?digits@?$numeric_limits@I@std@@2HB		; std::numeric_limits<unsigned int>::digits
PUBLIC	?_Max@?$AtlLimits@I@ATL@@2IB			; ATL::AtlLimits<unsigned int>::_Max
PUBLIC	?digits10@?$numeric_limits@I@std@@2HB		; std::numeric_limits<unsigned int>::digits10
PUBLIC	?_Min@?$AtlLimits@J@ATL@@2JB			; ATL::AtlLimits<long>::_Min
PUBLIC	?_Max@?$AtlLimits@J@ATL@@2JB			; ATL::AtlLimits<long>::_Max
PUBLIC	?value@?$integral_constant@_N$0A@@std@@2_NB	; std::integral_constant<bool,0>::value
PUBLIC	?ATL_CREATE_OBJECT@CComApartment@ATL@@2IA	; ATL::CComApartment::ATL_CREATE_OBJECT
_BSS	SEGMENT
?Cube@@3PAVCModel@@A DD 01H DUP (?)			; Cube
?Stars@@3PAVCModel@@A DD 01H DUP (?)			; Stars
?Crate@@3PAVCModel@@A DD 01H DUP (?)			; Crate
?Ground@@3PAVCModel@@A DD 01H DUP (?)			; Ground
?MainCamera@@3PAVCCamera@@A DD 01H DUP (?)		; MainCamera
?LeftTexture@@3PAUID3D10Texture2D@@A DD 01H DUP (?)	; LeftTexture
?RightTexture@@3PAUID3D10Texture2D@@A DD 01H DUP (?)	; RightTexture
?LeftRenderTarget@@3PAUID3D10RenderTargetView@@A DD 01H DUP (?) ; LeftRenderTarget
?RightRenderTarget@@3PAUID3D10RenderTargetView@@A DD 01H DUP (?) ; RightRenderTarget
?LeftShaderResource@@3PAUID3D10ShaderResourceView@@A DD 01H DUP (?) ; LeftShaderResource
?RightShaderResource@@3PAUID3D10ShaderResourceView@@A DD 01H DUP (?) ; RightShaderResource
_BSS	ENDS
;	COMDAT ?_pAtlAutoThreadModule@ATL@@3PAUIAtlAutoThreadModule@1@A
_BSS	SEGMENT
?_pAtlAutoThreadModule@ATL@@3PAUIAtlAutoThreadModule@1@A DD 01H DUP (?) ; ATL::_pAtlAutoThreadModule
_BSS	ENDS
_BSS	SEGMENT
?CubeDiffuseMap@@3PAUID3D10ShaderResourceView@@A DD 01H DUP (?) ; CubeDiffuseMap
?StarsDiffuseMap@@3PAUID3D10ShaderResourceView@@A DD 01H DUP (?) ; StarsDiffuseMap
?CrateDiffuseMap@@3PAUID3D10ShaderResourceView@@A DD 01H DUP (?) ; CrateDiffuseMap
?GroundDiffuseMap@@3PAUID3D10ShaderResourceView@@A DD 01H DUP (?) ; GroundDiffuseMap
?LightDiffuseMap@@3PAUID3D10ShaderResourceView@@A DD 01H DUP (?) ; LightDiffuseMap
?Light1@@3PAVCModel@@A DD 01H DUP (?)			; Light1
?Light2@@3PAVCModel@@A DD 01H DUP (?)			; Light2
?Effect@@3PAUID3D10Effect@@A DD 01H DUP (?)		; Effect
?VertexLitTexTechnique@@3PAUID3D10EffectTechnique@@A DD 01H DUP (?) ; VertexLitTexTechnique
?AdditiveTexTintTechnique@@3PAUID3D10EffectTechnique@@A DD 01H DUP (?) ; AdditiveTexTintTechnique
?AnaglyphTechnique@@3PAUID3D10EffectTechnique@@A DD 01H DUP (?) ; AnaglyphTechnique
?WorldMatrixVar@@3PAUID3D10EffectMatrixVariable@@A DD 01H DUP (?) ; WorldMatrixVar
?ViewMatrixVar@@3PAUID3D10EffectMatrixVariable@@A DD 01H DUP (?) ; ViewMatrixVar
?ProjMatrixVar@@3PAUID3D10EffectMatrixVariable@@A DD 01H DUP (?) ; ProjMatrixVar
?ViewProjMatrixVar@@3PAUID3D10EffectMatrixVariable@@A DD 01H DUP (?) ; ViewProjMatrixVar
?DiffuseMapVar@@3PAUID3D10EffectShaderResourceVariable@@A DD 01H DUP (?) ; DiffuseMapVar
?LeftViewVar@@3PAUID3D10EffectShaderResourceVariable@@A DD 01H DUP (?) ; LeftViewVar
?RightViewVar@@3PAUID3D10EffectShaderResourceVariable@@A DD 01H DUP (?) ; RightViewVar
?CameraPosVar@@3PAUID3D10EffectVectorVariable@@A DD 01H DUP (?) ; CameraPosVar
?Light1PosVar@@3PAUID3D10EffectVectorVariable@@A DD 01H DUP (?) ; Light1PosVar
?Light1ColourVar@@3PAUID3D10EffectVectorVariable@@A DD 01H DUP (?) ; Light1ColourVar
?Light2PosVar@@3PAUID3D10EffectVectorVariable@@A DD 01H DUP (?) ; Light2PosVar
?Light2ColourVar@@3PAUID3D10EffectVectorVariable@@A DD 01H DUP (?) ; Light2ColourVar
?AmbientColourVar@@3PAUID3D10EffectVectorVariable@@A DD 01H DUP (?) ; AmbientColourVar
?SpecularPowerVar@@3PAUID3D10EffectScalarVariable@@A DD 01H DUP (?) ; SpecularPowerVar
?TintColourVar@@3PAUID3D10EffectVectorVariable@@A DD 01H DUP (?) ; TintColourVar
?SwapChain@@3PAUIDXGISwapChain@@A DD 01H DUP (?)	; SwapChain
?DepthStencil@@3PAUID3D10Texture2D@@A DD 01H DUP (?)	; DepthStencil
?DepthStencilView@@3PAUID3D10DepthStencilView@@A DD 01H DUP (?) ; DepthStencilView
?BackBufferRenderTarget@@3PAUID3D10RenderTargetView@@A DD 01H DUP (?) ; BackBufferRenderTarget
?HInst@@3PAUHINSTANCE__@@A DD 01H DUP (?)		; HInst
?HWnd@@3PAUHWND__@@A DD 01H DUP (?)			; HWnd
?Rotate@?1??UpdateScene@@YAXM@Z@4MA DD 01H DUP (?)	; `UpdateScene'::`2'::Rotate
_BSS	ENDS
;	COMDAT ?_pAtlModule@ATL@@3PAVCAtlModule@1@A
_BSS	SEGMENT
?_pAtlModule@ATL@@3PAVCAtlModule@1@A DD 01H DUP (?)	; ATL::_pAtlModule
_BSS	ENDS
;	COMDAT ?m_libid@CAtlModule@ATL@@2U_GUID@@A
_BSS	SEGMENT
?m_libid@CAtlModule@ATL@@2U_GUID@@A DB 010H DUP (?)	; ATL::CAtlModule::m_libid
_BSS	ENDS
;	COMDAT ?m_bInitFailed@CAtlBaseModule@ATL@@2_NA
_BSS	SEGMENT
?m_bInitFailed@CAtlBaseModule@ATL@@2_NA DB 01H DUP (?)	; ATL::CAtlBaseModule::m_bInitFailed
_BSS	ENDS
;	COMDAT ?_pModule@ATL@@3PAVCComModule@1@A
_BSS	SEGMENT
?_pModule@ATL@@3PAVCComModule@1@A DD 01H DUP (?)	; ATL::_pModule
_BSS	ENDS
;	COMDAT ?_pPerfRegFunc@ATL@@3P6AJPAUHINSTANCE__@@@ZA
_BSS	SEGMENT
?_pPerfRegFunc@ATL@@3P6AJPAUHINSTANCE__@@@ZA DD 01H DUP (?) ; ATL::_pPerfRegFunc
_BSS	ENDS
;	COMDAT ?_pPerfUnRegFunc@ATL@@3P6AJXZA
_BSS	SEGMENT
?_pPerfUnRegFunc@ATL@@3P6AJXZA DD 01H DUP (?)		; ATL::_pPerfUnRegFunc
_BSS	ENDS
;	COMDAT ?_AtlRegisterPerUser@ATL@@3_NA
_BSS	SEGMENT
?_AtlRegisterPerUser@ATL@@3_NA DB 01H DUP (?)		; ATL::_AtlRegisterPerUser
_BSS	ENDS
;	COMDAT ?s_pfnPrevHook@CNoUIAssertHook@ATL@@0P6AHHPADPAH@ZA
_BSS	SEGMENT
?s_pfnPrevHook@CNoUIAssertHook@ATL@@0P6AHHPADPAH@ZA DD 01H DUP (?) ; ATL::CNoUIAssertHook::s_pfnPrevHook
_BSS	ENDS
_BSS	SEGMENT
?g_pd3dDevice@@3PAUID3D10Device@@A DD 01H DUP (?)	; g_pd3dDevice
?g_ViewportWidth@@3HA DD 01H DUP (?)			; g_ViewportWidth
?g_ViewportHeight@@3HA DD 01H DUP (?)			; g_ViewportHeight
_BSS	ENDS
;	COMDAT ?ATL_CREATE_OBJECT@CComApartment@ATL@@2IA
_BSS	SEGMENT
?ATL_CREATE_OBJECT@CComApartment@ATL@@2IA DD 01H DUP (?) ; ATL::CComApartment::ATL_CREATE_OBJECT
_BSS	ENDS
;	COMDAT ?value@?$integral_constant@_N$0A@@std@@2_NB
CONST	SEGMENT
?value@?$integral_constant@_N$0A@@std@@2_NB DB 00H	; std::integral_constant<bool,0>::value
CONST	ENDS
;	COMDAT ?_Max@?$AtlLimits@J@ATL@@2JB
CONST	SEGMENT
?_Max@?$AtlLimits@J@ATL@@2JB DD 07fffffffH		; ATL::AtlLimits<long>::_Max
CONST	ENDS
;	COMDAT ?_Min@?$AtlLimits@J@ATL@@2JB
CONST	SEGMENT
?_Min@?$AtlLimits@J@ATL@@2JB DD 080000000H		; ATL::AtlLimits<long>::_Min
CONST	ENDS
;	COMDAT ?digits10@?$numeric_limits@I@std@@2HB
CONST	SEGMENT
?digits10@?$numeric_limits@I@std@@2HB DD 09H		; std::numeric_limits<unsigned int>::digits10
CONST	ENDS
;	COMDAT ?_Max@?$AtlLimits@I@ATL@@2IB
CONST	SEGMENT
?_Max@?$AtlLimits@I@ATL@@2IB DD 0ffffffffH		; ATL::AtlLimits<unsigned int>::_Max
CONST	ENDS
;	COMDAT ?digits@?$numeric_limits@I@std@@2HB
CONST	SEGMENT
?digits@?$numeric_limits@I@std@@2HB DD 020H		; std::numeric_limits<unsigned int>::digits
CONST	ENDS
;	COMDAT ?_Min@?$AtlLimits@I@ATL@@2IB
CONST	SEGMENT
?_Min@?$AtlLimits@I@ATL@@2IB DD 00H			; ATL::AtlLimits<unsigned int>::_Min
CONST	ENDS
;	COMDAT ?is_signed@?$numeric_limits@I@std@@2_NB
CONST	SEGMENT
?is_signed@?$numeric_limits@I@std@@2_NB DB 00H		; std::numeric_limits<unsigned int>::is_signed
CONST	ENDS
;	COMDAT ?_Max@?$AtlLimits@H@ATL@@2HB
CONST	SEGMENT
?_Max@?$AtlLimits@H@ATL@@2HB DD 07fffffffH		; ATL::AtlLimits<int>::_Max
CONST	ENDS
;	COMDAT ?_Min@?$AtlLimits@H@ATL@@2HB
CONST	SEGMENT
?_Min@?$AtlLimits@H@ATL@@2HB DD 080000000H		; ATL::AtlLimits<int>::_Min
CONST	ENDS
;	COMDAT ?digits10@?$numeric_limits@H@std@@2HB
CONST	SEGMENT
?digits10@?$numeric_limits@H@std@@2HB DD 09H		; std::numeric_limits<int>::digits10
CONST	ENDS
;	COMDAT ?digits@?$numeric_limits@H@std@@2HB
CONST	SEGMENT
?digits@?$numeric_limits@H@std@@2HB DD 01fH		; std::numeric_limits<int>::digits
CONST	ENDS
;	COMDAT ??_C@_1M@EJNEECMJ@?$AAA?$AAp?$AAp?$AAI?$AAD?$AA?$AA@
CONST	SEGMENT
??_C@_1M@EJNEECMJ@?$AAA?$AAp?$AAp?$AAI?$AAD?$AA?$AA@ DB 'A', 00H, 'p', 00H
	DB	'p', 00H, 'I', 00H, 'D', 00H, 00H, 00H	; `string'
CONST	ENDS
;	COMDAT _IID_IInternalConnection
CONST	SEGMENT
_IID_IInternalConnection DD 072ad0770H
	DW	06a9fH
	DW	011d1H
	DB	0bcH
	DB	0ecH
	DB	00H
	DB	060H
	DB	08H
	DB	08fH
	DB	044H
	DB	04eH
CONST	ENDS
;	COMDAT ?is_signed@?$numeric_limits@H@std@@2_NB
CONST	SEGMENT
?is_signed@?$numeric_limits@H@std@@2_NB DB 01H		; std::numeric_limits<int>::is_signed
CONST	ENDS
;	COMDAT _IID_IAxWinAmbientDispatchEx
CONST	SEGMENT
_IID_IAxWinAmbientDispatchEx DD 0b2d0778bH
	DW	0ac99H
	DW	04c58H
	DB	0a5H
	DB	0c8H
	DB	0e7H
	DB	072H
	DB	04eH
	DB	053H
	DB	016H
	DB	0b5H
CONST	ENDS
;	COMDAT ??_C@_1M@KANJNLFF@?$AAC?$AAL?$AAS?$AAI?$AAD?$AA?$AA@
CONST	SEGMENT
??_C@_1M@KANJNLFF@?$AAC?$AAL?$AAS?$AAI?$AAD?$AA?$AA@ DB 'C', 00H, 'L', 00H
	DB	'S', 00H, 'I', 00H, 'D', 00H, 00H, 00H	; `string'
CONST	ENDS
;	COMDAT ?digits10@?$numeric_limits@G@std@@2HB
CONST	SEGMENT
?digits10@?$numeric_limits@G@std@@2HB DD 04H		; std::numeric_limits<unsigned short>::digits10
CONST	ENDS
;	COMDAT ?digits@?$numeric_limits@G@std@@2HB
CONST	SEGMENT
?digits@?$numeric_limits@G@std@@2HB DD 010H		; std::numeric_limits<unsigned short>::digits
CONST	ENDS
;	COMDAT ?is_signed@?$numeric_limits@G@std@@2_NB
CONST	SEGMENT
?is_signed@?$numeric_limits@G@std@@2_NB DB 00H		; std::numeric_limits<unsigned short>::is_signed
CONST	ENDS
;	COMDAT ?MAX_VERTEX_ELTS@CModel@@0HB
CONST	SEGMENT
?MAX_VERTEX_ELTS@CModel@@0HB DD 040H			; CModel::MAX_VERTEX_ELTS
CONST	ENDS
;	COMDAT ?_Stream_err@failure@ios_base@std@@0W4io_errc@43@B
CONST	SEGMENT
?_Stream_err@failure@ios_base@std@@0W4io_errc@43@B DD 01H ; std::ios_base::failure::_Stream_err
CONST	ENDS
;	COMDAT ?digits10@?$numeric_limits@F@std@@2HB
CONST	SEGMENT
?digits10@?$numeric_limits@F@std@@2HB DD 04H		; std::numeric_limits<short>::digits10
CONST	ENDS
;	COMDAT ?digits@?$numeric_limits@F@std@@2HB
CONST	SEGMENT
?digits@?$numeric_limits@F@std@@2HB DD 0fH		; std::numeric_limits<short>::digits
CONST	ENDS
;	COMDAT ?is_signed@?$numeric_limits@F@std@@2_NB
CONST	SEGMENT
?is_signed@?$numeric_limits@F@std@@2_NB DB 01H		; std::numeric_limits<short>::is_signed
CONST	ENDS
;	COMDAT ?end@?$_Iosb@H@std@@2W4_Seekdir@12@B
CONST	SEGMENT
?end@?$_Iosb@H@std@@2W4_Seekdir@12@B DD 02H		; std::_Iosb<int>::end
CONST	ENDS
;	COMDAT ?cur@?$_Iosb@H@std@@2W4_Seekdir@12@B
CONST	SEGMENT
?cur@?$_Iosb@H@std@@2W4_Seekdir@12@B DD 01H		; std::_Iosb<int>::cur
CONST	ENDS
;	COMDAT ?beg@?$_Iosb@H@std@@2W4_Seekdir@12@B
CONST	SEGMENT
?beg@?$_Iosb@H@std@@2W4_Seekdir@12@B DD 00H		; std::_Iosb<int>::beg
CONST	ENDS
;	COMDAT ?binary@?$_Iosb@H@std@@2W4_Openmode@12@B
CONST	SEGMENT
?binary@?$_Iosb@H@std@@2W4_Openmode@12@B DD 020H	; std::_Iosb<int>::binary
CONST	ENDS
;	COMDAT ?_Noreplace@?$_Iosb@H@std@@2W4_Openmode@12@B
CONST	SEGMENT
?_Noreplace@?$_Iosb@H@std@@2W4_Openmode@12@B DD 080H	; std::_Iosb<int>::_Noreplace
CONST	ENDS
;	COMDAT ?_Nocreate@?$_Iosb@H@std@@2W4_Openmode@12@B
CONST	SEGMENT
?_Nocreate@?$_Iosb@H@std@@2W4_Openmode@12@B DD 040H	; std::_Iosb<int>::_Nocreate
CONST	ENDS
;	COMDAT ?digits10@?$numeric_limits@E@std@@2HB
CONST	SEGMENT
?digits10@?$numeric_limits@E@std@@2HB DD 02H		; std::numeric_limits<unsigned char>::digits10
CONST	ENDS
;	COMDAT ?trunc@?$_Iosb@H@std@@2W4_Openmode@12@B
CONST	SEGMENT
?trunc@?$_Iosb@H@std@@2W4_Openmode@12@B DD 010H		; std::_Iosb<int>::trunc
CONST	ENDS
;	COMDAT ?digits@?$numeric_limits@E@std@@2HB
CONST	SEGMENT
?digits@?$numeric_limits@E@std@@2HB DD 08H		; std::numeric_limits<unsigned char>::digits
CONST	ENDS
;	COMDAT ?app@?$_Iosb@H@std@@2W4_Openmode@12@B
CONST	SEGMENT
?app@?$_Iosb@H@std@@2W4_Openmode@12@B DD 08H		; std::_Iosb<int>::app
CONST	ENDS
;	COMDAT ?is_signed@?$numeric_limits@E@std@@2_NB
CONST	SEGMENT
?is_signed@?$numeric_limits@E@std@@2_NB DB 00H		; std::numeric_limits<unsigned char>::is_signed
CONST	ENDS
;	COMDAT ?ate@?$_Iosb@H@std@@2W4_Openmode@12@B
CONST	SEGMENT
?ate@?$_Iosb@H@std@@2W4_Openmode@12@B DD 04H		; std::_Iosb<int>::ate
CONST	ENDS
;	COMDAT ?out@?$_Iosb@H@std@@2W4_Openmode@12@B
CONST	SEGMENT
?out@?$_Iosb@H@std@@2W4_Openmode@12@B DD 02H		; std::_Iosb<int>::out
CONST	ENDS
;	COMDAT ?in@?$_Iosb@H@std@@2W4_Openmode@12@B
CONST	SEGMENT
?in@?$_Iosb@H@std@@2W4_Openmode@12@B DD 01H		; std::_Iosb<int>::in
CONST	ENDS
;	COMDAT ?_Hardfail@?$_Iosb@H@std@@2W4_Iostate@12@B
CONST	SEGMENT
?_Hardfail@?$_Iosb@H@std@@2W4_Iostate@12@B DD 010H	; std::_Iosb<int>::_Hardfail
CONST	ENDS
;	COMDAT __GUID_0002e012_0000_0000_c000_000000000046
CONST	SEGMENT
__GUID_0002e012_0000_0000_c000_000000000046 DD 02e012H
	DW	00H
	DW	00H
	DB	0c0H
	DB	00H
	DB	00H
	DB	00H
	DB	00H
	DB	00H
	DB	00H
	DB	046H
CONST	ENDS
;	COMDAT ?badbit@?$_Iosb@H@std@@2W4_Iostate@12@B
CONST	SEGMENT
?badbit@?$_Iosb@H@std@@2W4_Iostate@12@B DD 04H		; std::_Iosb<int>::badbit
CONST	ENDS
;	COMDAT ?failbit@?$_Iosb@H@std@@2W4_Iostate@12@B
CONST	SEGMENT
?failbit@?$_Iosb@H@std@@2W4_Iostate@12@B DD 02H		; std::_Iosb<int>::failbit
CONST	ENDS
;	COMDAT ?eofbit@?$_Iosb@H@std@@2W4_Iostate@12@B
CONST	SEGMENT
?eofbit@?$_Iosb@H@std@@2W4_Iostate@12@B DD 01H		; std::_Iosb<int>::eofbit
CONST	ENDS
;	COMDAT ?goodbit@?$_Iosb@H@std@@2W4_Iostate@12@B
CONST	SEGMENT
?goodbit@?$_Iosb@H@std@@2W4_Iostate@12@B DD 00H		; std::_Iosb<int>::goodbit
CONST	ENDS
;	COMDAT ?floatfield@?$_Iosb@H@std@@2W4_Fmtflags@12@B
CONST	SEGMENT
?floatfield@?$_Iosb@H@std@@2W4_Fmtflags@12@B DD 03000H	; std::_Iosb<int>::floatfield
CONST	ENDS
;	COMDAT ?value@?$integral_constant@I$0A@@std@@2IB
CONST	SEGMENT
?value@?$integral_constant@I$0A@@std@@2IB DD 00H	; std::integral_constant<unsigned int,0>::value
CONST	ENDS
;	COMDAT ?digits10@?$numeric_limits@C@std@@2HB
CONST	SEGMENT
?digits10@?$numeric_limits@C@std@@2HB DD 02H		; std::numeric_limits<signed char>::digits10
CONST	ENDS
;	COMDAT ?basefield@?$_Iosb@H@std@@2W4_Fmtflags@12@B
CONST	SEGMENT
?basefield@?$_Iosb@H@std@@2W4_Fmtflags@12@B DD 0e00H	; std::_Iosb<int>::basefield
CONST	ENDS
;	COMDAT ?digits@?$numeric_limits@C@std@@2HB
CONST	SEGMENT
?digits@?$numeric_limits@C@std@@2HB DD 07H		; std::numeric_limits<signed char>::digits
CONST	ENDS
;	COMDAT ?adjustfield@?$_Iosb@H@std@@2W4_Fmtflags@12@B
CONST	SEGMENT
?adjustfield@?$_Iosb@H@std@@2W4_Fmtflags@12@B DD 01c0H	; std::_Iosb<int>::adjustfield
CONST	ENDS
;	COMDAT ?is_signed@?$numeric_limits@C@std@@2_NB
CONST	SEGMENT
?is_signed@?$numeric_limits@C@std@@2_NB DB 01H		; std::numeric_limits<signed char>::is_signed
CONST	ENDS
;	COMDAT ?_Stdio@?$_Iosb@H@std@@2W4_Fmtflags@12@B
CONST	SEGMENT
?_Stdio@?$_Iosb@H@std@@2W4_Fmtflags@12@B DD 08000H	; std::_Iosb<int>::_Stdio
CONST	ENDS
;	COMDAT ?boolalpha@?$_Iosb@H@std@@2W4_Fmtflags@12@B
CONST	SEGMENT
?boolalpha@?$_Iosb@H@std@@2W4_Fmtflags@12@B DD 04000H	; std::_Iosb<int>::boolalpha
CONST	ENDS
;	COMDAT ?hexfloat@?$_Iosb@H@std@@2W4_Fmtflags@12@B
CONST	SEGMENT
?hexfloat@?$_Iosb@H@std@@2W4_Fmtflags@12@B DD 03000H	; std::_Iosb<int>::hexfloat
CONST	ENDS
;	COMDAT ?fixed@?$_Iosb@H@std@@2W4_Fmtflags@12@B
CONST	SEGMENT
?fixed@?$_Iosb@H@std@@2W4_Fmtflags@12@B DD 02000H	; std::_Iosb<int>::fixed
CONST	ENDS
;	COMDAT ?scientific@?$_Iosb@H@std@@2W4_Fmtflags@12@B
CONST	SEGMENT
?scientific@?$_Iosb@H@std@@2W4_Fmtflags@12@B DD 01000H	; std::_Iosb<int>::scientific
CONST	ENDS
;	COMDAT ?hex@?$_Iosb@H@std@@2W4_Fmtflags@12@B
CONST	SEGMENT
?hex@?$_Iosb@H@std@@2W4_Fmtflags@12@B DD 0800H		; std::_Iosb<int>::hex
CONST	ENDS
;	COMDAT ?oct@?$_Iosb@H@std@@2W4_Fmtflags@12@B
CONST	SEGMENT
?oct@?$_Iosb@H@std@@2W4_Fmtflags@12@B DD 0400H		; std::_Iosb<int>::oct
CONST	ENDS
;	COMDAT ?dec@?$_Iosb@H@std@@2W4_Fmtflags@12@B
CONST	SEGMENT
?dec@?$_Iosb@H@std@@2W4_Fmtflags@12@B DD 0200H		; std::_Iosb<int>::dec
CONST	ENDS
;	COMDAT ?internal@?$_Iosb@H@std@@2W4_Fmtflags@12@B
CONST	SEGMENT
?internal@?$_Iosb@H@std@@2W4_Fmtflags@12@B DD 0100H	; std::_Iosb<int>::internal
CONST	ENDS
;	COMDAT ?right@?$_Iosb@H@std@@2W4_Fmtflags@12@B
CONST	SEGMENT
?right@?$_Iosb@H@std@@2W4_Fmtflags@12@B DD 080H		; std::_Iosb<int>::right
CONST	ENDS
;	COMDAT ?digits10@?$numeric_limits@_N@std@@2HB
CONST	SEGMENT
?digits10@?$numeric_limits@_N@std@@2HB DD 00H		; std::numeric_limits<bool>::digits10
CONST	ENDS
;	COMDAT ?left@?$_Iosb@H@std@@2W4_Fmtflags@12@B
CONST	SEGMENT
?left@?$_Iosb@H@std@@2W4_Fmtflags@12@B DD 040H		; std::_Iosb<int>::left
CONST	ENDS
;	COMDAT ?digits@?$numeric_limits@_N@std@@2HB
CONST	SEGMENT
?digits@?$numeric_limits@_N@std@@2HB DD 01H		; std::numeric_limits<bool>::digits
CONST	ENDS
;	COMDAT ?showpos@?$_Iosb@H@std@@2W4_Fmtflags@12@B
CONST	SEGMENT
?showpos@?$_Iosb@H@std@@2W4_Fmtflags@12@B DD 020H	; std::_Iosb<int>::showpos
CONST	ENDS
;	COMDAT ?is_signed@?$numeric_limits@_N@std@@2_NB
CONST	SEGMENT
?is_signed@?$numeric_limits@_N@std@@2_NB DB 00H		; std::numeric_limits<bool>::is_signed
CONST	ENDS
;	COMDAT ?showpoint@?$_Iosb@H@std@@2W4_Fmtflags@12@B
CONST	SEGMENT
?showpoint@?$_Iosb@H@std@@2W4_Fmtflags@12@B DD 010H	; std::_Iosb<int>::showpoint
CONST	ENDS
;	COMDAT ?is_modulo@?$numeric_limits@_N@std@@2_NB
CONST	SEGMENT
?is_modulo@?$numeric_limits@_N@std@@2_NB DB 00H		; std::numeric_limits<bool>::is_modulo
CONST	ENDS
;	COMDAT ?showbase@?$_Iosb@H@std@@2W4_Fmtflags@12@B
CONST	SEGMENT
?showbase@?$_Iosb@H@std@@2W4_Fmtflags@12@B DD 08H	; std::_Iosb<int>::showbase
CONST	ENDS
;	COMDAT ?uppercase@?$_Iosb@H@std@@2W4_Fmtflags@12@B
CONST	SEGMENT
?uppercase@?$_Iosb@H@std@@2W4_Fmtflags@12@B DD 04H	; std::_Iosb<int>::uppercase
CONST	ENDS
;	COMDAT ?unitbuf@?$_Iosb@H@std@@2W4_Fmtflags@12@B
CONST	SEGMENT
?unitbuf@?$_Iosb@H@std@@2W4_Fmtflags@12@B DD 02H	; std::_Iosb<int>::unitbuf
CONST	ENDS
;	COMDAT ??_C@_1BA@JIHHIEDE@?$AAT?$AAy?$AAp?$AAe?$AAL?$AAi?$AAb?$AA?$AA@
CONST	SEGMENT
??_C@_1BA@JIHHIEDE@?$AAT?$AAy?$AAp?$AAe?$AAL?$AAi?$AAb?$AA?$AA@ DB 'T', 00H
	DB	'y', 00H, 'p', 00H, 'e', 00H, 'L', 00H, 'i', 00H, 'b', 00H, 00H
	DB	00H						; `string'
CONST	ENDS
;	COMDAT ?skipws@?$_Iosb@H@std@@2W4_Fmtflags@12@B
CONST	SEGMENT
?skipws@?$_Iosb@H@std@@2W4_Fmtflags@12@B DD 01H		; std::_Iosb<int>::skipws
CONST	ENDS
;	COMDAT ??_C@_1BC@EAHCMADO@?$AAS?$AAo?$AAf?$AAt?$AAw?$AAa?$AAr?$AAe?$AA?$AA@
CONST	SEGMENT
??_C@_1BC@EAHCMADO@?$AAS?$AAo?$AAf?$AAt?$AAw?$AAa?$AAr?$AAe?$AA?$AA@ DB 'S'
	DB	00H, 'o', 00H, 'f', 00H, 't', 00H, 'w', 00H, 'a', 00H, 'r', 00H
	DB	'e', 00H, 00H, 00H				; `string'
CONST	ENDS
;	COMDAT ??_C@_1O@GBFINDKL@?$AAS?$AAY?$AAS?$AAT?$AAE?$AAM?$AA?$AA@
CONST	SEGMENT
??_C@_1O@GBFINDKL@?$AAS?$AAY?$AAS?$AAT?$AAE?$AAM?$AA?$AA@ DB 'S', 00H, 'Y'
	DB	00H, 'S', 00H, 'T', 00H, 'E', 00H, 'M', 00H, 00H, 00H ; `string'
CONST	ENDS
;	COMDAT ??_C@_1BC@IBECJAAI@?$AAS?$AAE?$AAC?$AAU?$AAR?$AAI?$AAT?$AAY?$AA?$AA@
CONST	SEGMENT
??_C@_1BC@IBECJAAI@?$AAS?$AAE?$AAC?$AAU?$AAR?$AAI?$AAT?$AAY?$AA?$AA@ DB 'S'
	DB	00H, 'E', 00H, 'C', 00H, 'U', 00H, 'R', 00H, 'I', 00H, 'T', 00H
	DB	'Y', 00H, 00H, 00H				; `string'
CONST	ENDS
;	COMDAT ??_C@_17OMAOINJK@?$AAS?$AAA?$AAM?$AA?$AA@
CONST	SEGMENT
??_C@_17OMAOINJK@?$AAS?$AAA?$AAM?$AA?$AA@ DB 'S', 00H, 'A', 00H, 'M', 00H
	DB	00H, 00H					; `string'
CONST	ENDS
;	COMDAT ??_C@_19HLLLM@?$AAM?$AAi?$AAm?$AAe?$AA?$AA@
CONST	SEGMENT
??_C@_19HLLLM@?$AAM?$AAi?$AAm?$AAe?$AA?$AA@ DB 'M', 00H, 'i', 00H, 'm', 00H
	DB	'e', 00H, 00H, 00H				; `string'
CONST	ENDS
;	COMDAT ??_C@_1BC@MAICEHGI@?$AAH?$AAa?$AAr?$AAd?$AAw?$AAa?$AAr?$AAe?$AA?$AA@
CONST	SEGMENT
??_C@_1BC@MAICEHGI@?$AAH?$AAa?$AAr?$AAd?$AAw?$AAa?$AAr?$AAe?$AA?$AA@ DB 'H'
	DB	00H, 'a', 00H, 'r', 00H, 'd', 00H, 'w', 00H, 'a', 00H, 'r', 00H
	DB	'e', 00H, 00H, 00H				; `string'
CONST	ENDS
;	COMDAT ??_C@_1BE@EKPAFMCP@?$AAI?$AAn?$AAt?$AAe?$AAr?$AAf?$AAa?$AAc?$AAe?$AA?$AA@
CONST	SEGMENT
??_C@_1BE@EKPAFMCP@?$AAI?$AAn?$AAt?$AAe?$AAr?$AAf?$AAa?$AAc?$AAe?$AA?$AA@ DB 'I'
	DB	00H, 'n', 00H, 't', 00H, 'e', 00H, 'r', 00H, 'f', 00H, 'a', 00H
	DB	'c', 00H, 'e', 00H, 00H, 00H			; `string'
CONST	ENDS
;	COMDAT ??_C@_1BC@NKMMNMGL@?$AAF?$AAi?$AAl?$AAe?$AAT?$AAy?$AAp?$AAe?$AA?$AA@
CONST	SEGMENT
??_C@_1BC@NKMMNMGL@?$AAF?$AAi?$AAl?$AAe?$AAT?$AAy?$AAp?$AAe?$AA?$AA@ DB 'F'
	DB	00H, 'i', 00H, 'l', 00H, 'e', 00H, 'T', 00H, 'y', 00H, 'p', 00H
	DB	'e', 00H, 00H, 00H				; `string'
CONST	ENDS
;	COMDAT ??_C@_1CK@OEKPKBNA@?$AAC?$AAo?$AAm?$AAp?$AAo?$AAn?$AAe?$AAn?$AAt?$AA?5?$AAC?$AAa?$AAt?$AAe?$AAg?$AAo?$AAr?$AAi?$AAe?$AAs?$AA?$AA@
CONST	SEGMENT
??_C@_1CK@OEKPKBNA@?$AAC?$AAo?$AAm?$AAp?$AAo?$AAn?$AAe?$AAn?$AAt?$AA?5?$AAC?$AAa?$AAt?$AAe?$AAg?$AAo?$AAr?$AAi?$AAe?$AAs?$AA?$AA@ DB 'C'
	DB	00H, 'o', 00H, 'm', 00H, 'p', 00H, 'o', 00H, 'n', 00H, 'e', 00H
	DB	'n', 00H, 't', 00H, ' ', 00H, 'C', 00H, 'a', 00H, 't', 00H, 'e'
	DB	00H, 'g', 00H, 'o', 00H, 'r', 00H, 'i', 00H, 'e', 00H, 's', 00H
	DB	00H, 00H					; `string'
CONST	ENDS
;	COMDAT ?digits10@?$numeric_limits@_W@std@@2HB
CONST	SEGMENT
?digits10@?$numeric_limits@_W@std@@2HB DD 04H		; std::numeric_limits<wchar_t>::digits10
CONST	ENDS
;	COMDAT ?digits@?$numeric_limits@_W@std@@2HB
CONST	SEGMENT
?digits@?$numeric_limits@_W@std@@2HB DD 010H		; std::numeric_limits<wchar_t>::digits
CONST	ENDS
;	COMDAT ___pobjMapEntryLast
ATL$__z	SEGMENT
___pobjMapEntryLast DD 00H
ATL$__z	ENDS
;	COMDAT ?is_signed@?$numeric_limits@_W@std@@2_NB
CONST	SEGMENT
?is_signed@?$numeric_limits@_W@std@@2_NB DB 00H		; std::numeric_limits<wchar_t>::is_signed
CONST	ENDS
;	COMDAT ___pobjMapEntryFirst
ATL$__a	SEGMENT
___pobjMapEntryFirst DD 00H
ATL$__a	ENDS
;	COMDAT ?digits10@?$numeric_limits@D@std@@2HB
CONST	SEGMENT
?digits10@?$numeric_limits@D@std@@2HB DD 02H		; std::numeric_limits<char>::digits10
CONST	ENDS
;	COMDAT ?digits@?$numeric_limits@D@std@@2HB
CONST	SEGMENT
?digits@?$numeric_limits@D@std@@2HB DD 07H		; std::numeric_limits<char>::digits
CONST	ENDS
;	COMDAT ?is_signed@?$numeric_limits@D@std@@2_NB
CONST	SEGMENT
?is_signed@?$numeric_limits@D@std@@2_NB DB 01H		; std::numeric_limits<char>::is_signed
CONST	ENDS
;	COMDAT ?radix@_Num_float_base@std@@2HB
CONST	SEGMENT
?radix@_Num_float_base@std@@2HB DD 02H			; std::_Num_float_base::radix
CONST	ENDS
;	COMDAT ?round_style@_Num_float_base@std@@2W4float_round_style@2@B
CONST	SEGMENT
?round_style@_Num_float_base@std@@2W4float_round_style@2@B DD 01H ; std::_Num_float_base::round_style
CONST	ENDS
;	COMDAT ?traps@_Num_float_base@std@@2_NB
CONST	SEGMENT
?traps@_Num_float_base@std@@2_NB DB 00H			; std::_Num_float_base::traps
CONST	ENDS
;	COMDAT ?tinyness_before@_Num_float_base@std@@2_NB
CONST	SEGMENT
?tinyness_before@_Num_float_base@std@@2_NB DB 01H	; std::_Num_float_base::tinyness_before
CONST	ENDS
;	COMDAT ?is_specialized@_Num_float_base@std@@2_NB
CONST	SEGMENT
?is_specialized@_Num_float_base@std@@2_NB DB 01H	; std::_Num_float_base::is_specialized
CONST	ENDS
;	COMDAT ?is_signed@_Num_float_base@std@@2_NB
CONST	SEGMENT
?is_signed@_Num_float_base@std@@2_NB DB 01H		; std::_Num_float_base::is_signed
CONST	ENDS
;	COMDAT ?is_modulo@_Num_float_base@std@@2_NB
CONST	SEGMENT
?is_modulo@_Num_float_base@std@@2_NB DB 00H		; std::_Num_float_base::is_modulo
CONST	ENDS
;	COMDAT ?is_integer@_Num_float_base@std@@2_NB
CONST	SEGMENT
?is_integer@_Num_float_base@std@@2_NB DB 00H		; std::_Num_float_base::is_integer
CONST	ENDS
;	COMDAT _IID_IAxWinAmbientDispatch
CONST	SEGMENT
_IID_IAxWinAmbientDispatch DD 0b6ea2051H
	DW	048aH
	DW	011d1H
	DB	082H
	DB	0b9H
	DB	00H
	DB	0c0H
	DB	04fH
	DB	0b9H
	DB	094H
	DB	02eH
CONST	ENDS
;	COMDAT ?is_iec559@_Num_float_base@std@@2_NB
CONST	SEGMENT
?is_iec559@_Num_float_base@std@@2_NB DB 01H		; std::_Num_float_base::is_iec559
CONST	ENDS
;	COMDAT ?is_exact@_Num_float_base@std@@2_NB
CONST	SEGMENT
?is_exact@_Num_float_base@std@@2_NB DB 00H		; std::_Num_float_base::is_exact
CONST	ENDS
;	COMDAT ?is_bounded@_Num_float_base@std@@2_NB
CONST	SEGMENT
?is_bounded@_Num_float_base@std@@2_NB DB 01H		; std::_Num_float_base::is_bounded
CONST	ENDS
;	COMDAT ?has_signaling_NaN@_Num_float_base@std@@2_NB
CONST	SEGMENT
?has_signaling_NaN@_Num_float_base@std@@2_NB DB 01H	; std::_Num_float_base::has_signaling_NaN
CONST	ENDS
;	COMDAT ?has_quiet_NaN@_Num_float_base@std@@2_NB
CONST	SEGMENT
?has_quiet_NaN@_Num_float_base@std@@2_NB DB 01H		; std::_Num_float_base::has_quiet_NaN
CONST	ENDS
;	COMDAT ?has_infinity@_Num_float_base@std@@2_NB
CONST	SEGMENT
?has_infinity@_Num_float_base@std@@2_NB DB 01H		; std::_Num_float_base::has_infinity
CONST	ENDS
;	COMDAT ?has_denorm_loss@_Num_float_base@std@@2_NB
CONST	SEGMENT
?has_denorm_loss@_Num_float_base@std@@2_NB DB 01H	; std::_Num_float_base::has_denorm_loss
CONST	ENDS
;	COMDAT ?has_denorm@_Num_float_base@std@@2W4float_denorm_style@2@B
CONST	SEGMENT
?has_denorm@_Num_float_base@std@@2W4float_denorm_style@2@B DD 01H ; std::_Num_float_base::has_denorm
CONST	ENDS
;	COMDAT ?radix@_Num_int_base@std@@2HB
CONST	SEGMENT
?radix@_Num_int_base@std@@2HB DD 02H			; std::_Num_int_base::radix
CONST	ENDS
;	COMDAT ?is_specialized@_Num_int_base@std@@2_NB
CONST	SEGMENT
?is_specialized@_Num_int_base@std@@2_NB DB 01H		; std::_Num_int_base::is_specialized
CONST	ENDS
;	COMDAT ?is_modulo@_Num_int_base@std@@2_NB
CONST	SEGMENT
?is_modulo@_Num_int_base@std@@2_NB DB 01H		; std::_Num_int_base::is_modulo
CONST	ENDS
;	COMDAT ?is_integer@_Num_int_base@std@@2_NB
CONST	SEGMENT
?is_integer@_Num_int_base@std@@2_NB DB 01H		; std::_Num_int_base::is_integer
CONST	ENDS
;	COMDAT ?is_exact@_Num_int_base@std@@2_NB
CONST	SEGMENT
?is_exact@_Num_int_base@std@@2_NB DB 01H		; std::_Num_int_base::is_exact
CONST	ENDS
;	COMDAT _IID_IAxWinHostWindowLic
CONST	SEGMENT
_IID_IAxWinHostWindowLic DD 03935bda8H
	DW	04ed9H
	DW	0495cH
	DB	086H
	DB	050H
	DB	0e0H
	DB	01fH
	DB	0c1H
	DB	0e3H
	DB	08aH
	DB	04bH
CONST	ENDS
;	COMDAT ?is_bounded@_Num_int_base@std@@2_NB
CONST	SEGMENT
?is_bounded@_Num_int_base@std@@2_NB DB 01H		; std::_Num_int_base::is_bounded
CONST	ENDS
;	COMDAT _LIBID_ATLLib
CONST	SEGMENT
_LIBID_ATLLib DD 044ec0535H
	DW	0400fH
	DW	011d0H
	DB	09dH
	DB	0cdH
	DB	00H
	DB	0a0H
	DB	0c9H
	DB	03H
	DB	091H
	DB	0d3H
CONST	ENDS
;	COMDAT ?pmField@?$CVarTypeInfo@PATtagCY@@@ATL@@2QQtagVARIANT@@PATtagCY@@Q3@
CONST	SEGMENT
?pmField@?$CVarTypeInfo@PATtagCY@@@ATL@@2QQtagVARIANT@@PATtagCY@@Q3@ DD 08H ; ATL::CVarTypeInfo<tagCY *>::pmField
CONST	ENDS
;	COMDAT ?VT@?$CVarTypeInfo@PATtagCY@@@ATL@@2GB
CONST	SEGMENT
?VT@?$CVarTypeInfo@PATtagCY@@@ATL@@2GB DW 04006H	; ATL::CVarTypeInfo<tagCY *>::VT
CONST	ENDS
;	COMDAT ?radix@_Num_base@std@@2HB
CONST	SEGMENT
?radix@_Num_base@std@@2HB DD 00H			; std::_Num_base::radix
CONST	ENDS
;	COMDAT ?min_exponent10@_Num_base@std@@2HB
CONST	SEGMENT
?min_exponent10@_Num_base@std@@2HB DD 00H		; std::_Num_base::min_exponent10
CONST	ENDS
;	COMDAT ?min_exponent@_Num_base@std@@2HB
CONST	SEGMENT
?min_exponent@_Num_base@std@@2HB DD 00H			; std::_Num_base::min_exponent
CONST	ENDS
;	COMDAT __GUID_b196b284_bab4_101a_b69c_00aa00341d07
CONST	SEGMENT
__GUID_b196b284_bab4_101a_b69c_00aa00341d07 DD 0b196b284H
	DW	0bab4H
	DW	0101aH
	DB	0b6H
	DB	09cH
	DB	00H
	DB	0aaH
	DB	00H
	DB	034H
	DB	01dH
	DB	07H
CONST	ENDS
;	COMDAT __GUID_00020400_0000_0000_c000_000000000046
CONST	SEGMENT
__GUID_00020400_0000_0000_c000_000000000046 DD 020400H
	DW	00H
	DW	00H
	DB	0c0H
	DB	00H
	DB	00H
	DB	00H
	DB	00H
	DB	00H
	DB	00H
	DB	046H
CONST	ENDS
;	COMDAT ?pmField@?$CVarTypeInfo@TtagCY@@@ATL@@2QQtagVARIANT@@TtagCY@@Q3@
CONST	SEGMENT
?pmField@?$CVarTypeInfo@TtagCY@@@ATL@@2QQtagVARIANT@@TtagCY@@Q3@ DD 08H ; ATL::CVarTypeInfo<tagCY>::pmField
CONST	ENDS
;	COMDAT ?max_exponent10@_Num_base@std@@2HB
CONST	SEGMENT
?max_exponent10@_Num_base@std@@2HB DD 00H		; std::_Num_base::max_exponent10
CONST	ENDS
;	COMDAT ?VT@?$CVarTypeInfo@TtagCY@@@ATL@@2GB
CONST	SEGMENT
?VT@?$CVarTypeInfo@TtagCY@@@ATL@@2GB DW 06H		; ATL::CVarTypeInfo<tagCY>::VT
CONST	ENDS
;	COMDAT ?max_exponent@_Num_base@std@@2HB
CONST	SEGMENT
?max_exponent@_Num_base@std@@2HB DD 00H			; std::_Num_base::max_exponent
CONST	ENDS
;	COMDAT ?max_digits10@_Num_base@std@@2HB
CONST	SEGMENT
?max_digits10@_Num_base@std@@2HB DD 00H			; std::_Num_base::max_digits10
CONST	ENDS
;	COMDAT ?digits10@_Num_base@std@@2HB
CONST	SEGMENT
?digits10@_Num_base@std@@2HB DD 00H			; std::_Num_base::digits10
CONST	ENDS
;	COMDAT ?digits@_Num_base@std@@2HB
CONST	SEGMENT
?digits@_Num_base@std@@2HB DD 00H			; std::_Num_base::digits
CONST	ENDS
;	COMDAT ?pmField@?$CVarTypeInfo@PAPAUIDispatch@@@ATL@@2QQtagVARIANT@@PAPAUIDispatch@@Q3@
CONST	SEGMENT
?pmField@?$CVarTypeInfo@PAPAUIDispatch@@@ATL@@2QQtagVARIANT@@PAPAUIDispatch@@Q3@ DD 08H ; ATL::CVarTypeInfo<IDispatch * *>::pmField
CONST	ENDS
;	COMDAT ?VT@?$CVarTypeInfo@PAPAUIDispatch@@@ATL@@2GB
CONST	SEGMENT
?VT@?$CVarTypeInfo@PAPAUIDispatch@@@ATL@@2GB DW 04009H	; ATL::CVarTypeInfo<IDispatch * *>::VT
CONST	ENDS
;	COMDAT ?round_style@_Num_base@std@@2W4float_round_style@2@B
CONST	SEGMENT
?round_style@_Num_base@std@@2W4float_round_style@2@B DD 00H ; std::_Num_base::round_style
CONST	ENDS
;	COMDAT ?traps@_Num_base@std@@2_NB
CONST	SEGMENT
?traps@_Num_base@std@@2_NB DB 00H			; std::_Num_base::traps
CONST	ENDS
;	COMDAT __GUID_00000000_0000_0000_c000_000000000046
CONST	SEGMENT
__GUID_00000000_0000_0000_c000_000000000046 DD 00H
	DW	00H
	DW	00H
	DB	0c0H
	DB	00H
	DB	00H
	DB	00H
	DB	00H
	DB	00H
	DB	00H
	DB	046H
CONST	ENDS
;	COMDAT ?tinyness_before@_Num_base@std@@2_NB
CONST	SEGMENT
?tinyness_before@_Num_base@std@@2_NB DB 00H		; std::_Num_base::tinyness_before
CONST	ENDS
;	COMDAT ?is_specialized@_Num_base@std@@2_NB
CONST	SEGMENT
?is_specialized@_Num_base@std@@2_NB DB 00H		; std::_Num_base::is_specialized
CONST	ENDS
;	COMDAT ?pmField@?$CVarTypeInfo@PAUIDispatch@@@ATL@@2QQtagVARIANT@@PAUIDispatch@@Q3@
CONST	SEGMENT
?pmField@?$CVarTypeInfo@PAUIDispatch@@@ATL@@2QQtagVARIANT@@PAUIDispatch@@Q3@ DD 08H ; ATL::CVarTypeInfo<IDispatch *>::pmField
CONST	ENDS
;	COMDAT ?value@?$_Sizeof@HU_Nil@std@@U12@U12@U12@U12@U12@U12@@std@@2IB
CONST	SEGMENT
?value@?$_Sizeof@HU_Nil@std@@U12@U12@U12@U12@U12@U12@@std@@2IB DD 01H ; std::_Sizeof<int,std::_Nil,std::_Nil,std::_Nil,std::_Nil,std::_Nil,std::_Nil,std::_Nil>::value
CONST	ENDS
;	COMDAT ?is_signed@_Num_base@std@@2_NB
CONST	SEGMENT
?is_signed@_Num_base@std@@2_NB DB 00H			; std::_Num_base::is_signed
CONST	ENDS
;	COMDAT ?VT@?$CVarTypeInfo@PAUIDispatch@@@ATL@@2GB
CONST	SEGMENT
?VT@?$CVarTypeInfo@PAUIDispatch@@@ATL@@2GB DW 09H	; ATL::CVarTypeInfo<IDispatch *>::VT
CONST	ENDS
;	COMDAT ?is_modulo@_Num_base@std@@2_NB
CONST	SEGMENT
?is_modulo@_Num_base@std@@2_NB DB 00H			; std::_Num_base::is_modulo
CONST	ENDS
;	COMDAT ?is_integer@_Num_base@std@@2_NB
CONST	SEGMENT
?is_integer@_Num_base@std@@2_NB DB 00H			; std::_Num_base::is_integer
CONST	ENDS
;	COMDAT ?is_iec559@_Num_base@std@@2_NB
CONST	SEGMENT
?is_iec559@_Num_base@std@@2_NB DB 00H			; std::_Num_base::is_iec559
CONST	ENDS
;	COMDAT ?pmField@?$CVarTypeInfo@PAPAUIUnknown@@@ATL@@2QQtagVARIANT@@PAPAUIUnknown@@Q3@
CONST	SEGMENT
?pmField@?$CVarTypeInfo@PAPAUIUnknown@@@ATL@@2QQtagVARIANT@@PAPAUIUnknown@@Q3@ DD 08H ; ATL::CVarTypeInfo<IUnknown * *>::pmField
CONST	ENDS
;	COMDAT ?is_exact@_Num_base@std@@2_NB
CONST	SEGMENT
?is_exact@_Num_base@std@@2_NB DB 00H			; std::_Num_base::is_exact
CONST	ENDS
;	COMDAT ?VT@?$CVarTypeInfo@PAPAUIUnknown@@@ATL@@2GB
CONST	SEGMENT
?VT@?$CVarTypeInfo@PAPAUIUnknown@@@ATL@@2GB DW 0400dH	; ATL::CVarTypeInfo<IUnknown * *>::VT
CONST	ENDS
;	COMDAT ?is_bounded@_Num_base@std@@2_NB
CONST	SEGMENT
?is_bounded@_Num_base@std@@2_NB DB 00H			; std::_Num_base::is_bounded
CONST	ENDS
;	COMDAT ?has_signaling_NaN@_Num_base@std@@2_NB
CONST	SEGMENT
?has_signaling_NaN@_Num_base@std@@2_NB DB 00H		; std::_Num_base::has_signaling_NaN
CONST	ENDS
;	COMDAT _IID_IAxWinHostWindow
CONST	SEGMENT
_IID_IAxWinHostWindow DD 0b6ea2050H
	DW	048aH
	DW	011d1H
	DB	082H
	DB	0b9H
	DB	00H
	DB	0c0H
	DB	04fH
	DB	0b9H
	DB	094H
	DB	02eH
CONST	ENDS
;	COMDAT ?has_quiet_NaN@_Num_base@std@@2_NB
CONST	SEGMENT
?has_quiet_NaN@_Num_base@std@@2_NB DB 00H		; std::_Num_base::has_quiet_NaN
CONST	ENDS
;	COMDAT ?has_infinity@_Num_base@std@@2_NB
CONST	SEGMENT
?has_infinity@_Num_base@std@@2_NB DB 00H		; std::_Num_base::has_infinity
CONST	ENDS
;	COMDAT ?pmField@?$CVarTypeInfo@PAUIUnknown@@@ATL@@2QQtagVARIANT@@PAUIUnknown@@Q3@
CONST	SEGMENT
?pmField@?$CVarTypeInfo@PAUIUnknown@@@ATL@@2QQtagVARIANT@@PAUIUnknown@@Q3@ DD 08H ; ATL::CVarTypeInfo<IUnknown *>::pmField
CONST	ENDS
;	COMDAT ?VT@?$CVarTypeInfo@PAUIUnknown@@@ATL@@2GB
CONST	SEGMENT
?VT@?$CVarTypeInfo@PAUIUnknown@@@ATL@@2GB DW 0dH	; ATL::CVarTypeInfo<IUnknown *>::VT
CONST	ENDS
;	COMDAT ?has_denorm_loss@_Num_base@std@@2_NB
CONST	SEGMENT
?has_denorm_loss@_Num_base@std@@2_NB DB 00H		; std::_Num_base::has_denorm_loss
CONST	ENDS
;	COMDAT ?has_denorm@_Num_base@std@@2W4float_denorm_style@2@B
CONST	SEGMENT
?has_denorm@_Num_base@std@@2W4float_denorm_style@2@B DD 00H ; std::_Num_base::has_denorm
CONST	ENDS
;	COMDAT ?pmField@?$CVarTypeInfo@PAPA_W@ATL@@2QQtagVARIANT@@PAPA_WQ3@
CONST	SEGMENT
?pmField@?$CVarTypeInfo@PAPA_W@ATL@@2QQtagVARIANT@@PAPA_WQ3@ DD 08H ; ATL::CVarTypeInfo<wchar_t * *>::pmField
CONST	ENDS
;	COMDAT ?VT@?$CVarTypeInfo@PAPA_W@ATL@@2GB
CONST	SEGMENT
?VT@?$CVarTypeInfo@PAPA_W@ATL@@2GB DW 04008H		; ATL::CVarTypeInfo<wchar_t * *>::VT
CONST	ENDS
;	COMDAT ?pmField@?$CVarTypeInfo@PA_W@ATL@@2QQtagVARIANT@@PA_WQ3@
CONST	SEGMENT
?pmField@?$CVarTypeInfo@PA_W@ATL@@2QQtagVARIANT@@PA_WQ3@ DD 08H ; ATL::CVarTypeInfo<wchar_t *>::pmField
CONST	ENDS
;	COMDAT ?VT@?$CVarTypeInfo@PA_W@ATL@@2GB
CONST	SEGMENT
?VT@?$CVarTypeInfo@PA_W@ATL@@2GB DW 08H			; ATL::CVarTypeInfo<wchar_t *>::VT
CONST	ENDS
;	COMDAT ?VT@?$CVarTypeInfo@PAUtagVARIANT@@@ATL@@2GB
CONST	SEGMENT
?VT@?$CVarTypeInfo@PAUtagVARIANT@@@ATL@@2GB DW 0400cH	; ATL::CVarTypeInfo<tagVARIANT *>::VT
CONST	ENDS
;	COMDAT __GUID_00000146_0000_0000_c000_000000000046
CONST	SEGMENT
__GUID_00000146_0000_0000_c000_000000000046 DD 0146H
	DW	00H
	DW	00H
	DB	0c0H
	DB	00H
	DB	00H
	DB	00H
	DB	00H
	DB	00H
	DB	00H
	DB	046H
CONST	ENDS
;	COMDAT ?pmField@?$CVarTypeInfo@PAN@ATL@@2QQtagVARIANT@@PANQ3@
CONST	SEGMENT
?pmField@?$CVarTypeInfo@PAN@ATL@@2QQtagVARIANT@@PANQ3@ DD 08H ; ATL::CVarTypeInfo<double *>::pmField
CONST	ENDS
;	COMDAT ?VT@?$CVarTypeInfo@PAN@ATL@@2GB
CONST	SEGMENT
?VT@?$CVarTypeInfo@PAN@ATL@@2GB DW 04005H		; ATL::CVarTypeInfo<double *>::VT
CONST	ENDS
;	COMDAT ?pmField@?$CVarTypeInfo@N@ATL@@2QQtagVARIANT@@NQ3@
CONST	SEGMENT
?pmField@?$CVarTypeInfo@N@ATL@@2QQtagVARIANT@@NQ3@ DD 08H ; ATL::CVarTypeInfo<double>::pmField
CONST	ENDS
;	COMDAT ?VT@?$CVarTypeInfo@N@ATL@@2GB
CONST	SEGMENT
?VT@?$CVarTypeInfo@N@ATL@@2GB DW 05H			; ATL::CVarTypeInfo<double>::VT
CONST	ENDS
;	COMDAT ?pmField@?$CVarTypeInfo@PAM@ATL@@2QQtagVARIANT@@PAMQ3@
CONST	SEGMENT
?pmField@?$CVarTypeInfo@PAM@ATL@@2QQtagVARIANT@@PAMQ3@ DD 08H ; ATL::CVarTypeInfo<float *>::pmField
CONST	ENDS
;	COMDAT ?VT@?$CVarTypeInfo@PAM@ATL@@2GB
CONST	SEGMENT
?VT@?$CVarTypeInfo@PAM@ATL@@2GB DW 04004H		; ATL::CVarTypeInfo<float *>::VT
CONST	ENDS
;	COMDAT ?pmField@?$CVarTypeInfo@M@ATL@@2QQtagVARIANT@@MQ3@
CONST	SEGMENT
?pmField@?$CVarTypeInfo@M@ATL@@2QQtagVARIANT@@MQ3@ DD 08H ; ATL::CVarTypeInfo<float>::pmField
CONST	ENDS
;	COMDAT ?VT@?$CVarTypeInfo@M@ATL@@2GB
CONST	SEGMENT
?VT@?$CVarTypeInfo@M@ATL@@2GB DW 04H			; ATL::CVarTypeInfo<float>::VT
CONST	ENDS
;	COMDAT ?pmField@?$CVarTypeInfo@PA_K@ATL@@2QQtagVARIANT@@PA_KQ3@
CONST	SEGMENT
?pmField@?$CVarTypeInfo@PA_K@ATL@@2QQtagVARIANT@@PA_KQ3@ DD 08H ; ATL::CVarTypeInfo<unsigned __int64 *>::pmField
CONST	ENDS
;	COMDAT ?VT@?$CVarTypeInfo@PA_K@ATL@@2GB
CONST	SEGMENT
?VT@?$CVarTypeInfo@PA_K@ATL@@2GB DW 04015H		; ATL::CVarTypeInfo<unsigned __int64 *>::VT
CONST	ENDS
;	COMDAT ?pmField@?$CVarTypeInfo@_K@ATL@@2QQtagVARIANT@@_KQ3@
CONST	SEGMENT
?pmField@?$CVarTypeInfo@_K@ATL@@2QQtagVARIANT@@_KQ3@ DD 08H ; ATL::CVarTypeInfo<unsigned __int64>::pmField
CONST	ENDS
;	COMDAT ?VT@?$CVarTypeInfo@_K@ATL@@2GB
CONST	SEGMENT
?VT@?$CVarTypeInfo@_K@ATL@@2GB DW 015H			; ATL::CVarTypeInfo<unsigned __int64>::VT
CONST	ENDS
;	COMDAT ?pmField@?$CVarTypeInfo@PA_J@ATL@@2QQtagVARIANT@@PA_JQ3@
CONST	SEGMENT
?pmField@?$CVarTypeInfo@PA_J@ATL@@2QQtagVARIANT@@PA_JQ3@ DD 08H ; ATL::CVarTypeInfo<__int64 *>::pmField
CONST	ENDS
;	COMDAT ?VT@?$CVarTypeInfo@PA_J@ATL@@2GB
CONST	SEGMENT
?VT@?$CVarTypeInfo@PA_J@ATL@@2GB DW 04014H		; ATL::CVarTypeInfo<__int64 *>::VT
CONST	ENDS
;	COMDAT ?pmField@?$CVarTypeInfo@_J@ATL@@2QQtagVARIANT@@_JQ3@
CONST	SEGMENT
?pmField@?$CVarTypeInfo@_J@ATL@@2QQtagVARIANT@@_JQ3@ DD 08H ; ATL::CVarTypeInfo<__int64>::pmField
CONST	ENDS
;	COMDAT ?VT@?$CVarTypeInfo@_J@ATL@@2GB
CONST	SEGMENT
?VT@?$CVarTypeInfo@_J@ATL@@2GB DW 014H			; ATL::CVarTypeInfo<__int64>::VT
CONST	ENDS
;	COMDAT ?pmField@?$CVarTypeInfo@PAK@ATL@@2QQtagVARIANT@@PAKQ3@
CONST	SEGMENT
?pmField@?$CVarTypeInfo@PAK@ATL@@2QQtagVARIANT@@PAKQ3@ DD 08H ; ATL::CVarTypeInfo<unsigned long *>::pmField
CONST	ENDS
;	COMDAT ?VT@?$CVarTypeInfo@PAK@ATL@@2GB
CONST	SEGMENT
?VT@?$CVarTypeInfo@PAK@ATL@@2GB DW 04013H		; ATL::CVarTypeInfo<unsigned long *>::VT
CONST	ENDS
;	COMDAT ?pmField@?$CVarTypeInfo@K@ATL@@2QQtagVARIANT@@KQ3@
CONST	SEGMENT
?pmField@?$CVarTypeInfo@K@ATL@@2QQtagVARIANT@@KQ3@ DD 08H ; ATL::CVarTypeInfo<unsigned long>::pmField
CONST	ENDS
;	COMDAT ?VT@?$CVarTypeInfo@K@ATL@@2GB
CONST	SEGMENT
?VT@?$CVarTypeInfo@K@ATL@@2GB DW 013H			; ATL::CVarTypeInfo<unsigned long>::VT
CONST	ENDS
;	COMDAT ?pmField@?$CVarTypeInfo@PAJ@ATL@@2QQtagVARIANT@@PAJQ3@
CONST	SEGMENT
?pmField@?$CVarTypeInfo@PAJ@ATL@@2QQtagVARIANT@@PAJQ3@ DD 08H ; ATL::CVarTypeInfo<long *>::pmField
CONST	ENDS
;	COMDAT ?VT@?$CVarTypeInfo@PAJ@ATL@@2GB
CONST	SEGMENT
?VT@?$CVarTypeInfo@PAJ@ATL@@2GB DW 04003H		; ATL::CVarTypeInfo<long *>::VT
CONST	ENDS
;	COMDAT ?pmField@?$CVarTypeInfo@J@ATL@@2QQtagVARIANT@@JQ3@
CONST	SEGMENT
?pmField@?$CVarTypeInfo@J@ATL@@2QQtagVARIANT@@JQ3@ DD 08H ; ATL::CVarTypeInfo<long>::pmField
CONST	ENDS
;	COMDAT ?VT@?$CVarTypeInfo@J@ATL@@2GB
CONST	SEGMENT
?VT@?$CVarTypeInfo@J@ATL@@2GB DW 03H			; ATL::CVarTypeInfo<long>::VT
CONST	ENDS
;	COMDAT ?pmField@?$CVarTypeInfo@PAI@ATL@@2QQtagVARIANT@@PAIQ3@
CONST	SEGMENT
?pmField@?$CVarTypeInfo@PAI@ATL@@2QQtagVARIANT@@PAIQ3@ DD 08H ; ATL::CVarTypeInfo<unsigned int *>::pmField
CONST	ENDS
;	COMDAT _IID_IDocHostUIHandlerDispatch
CONST	SEGMENT
_IID_IDocHostUIHandlerDispatch DD 0425b5af0H
	DW	065f1H
	DW	011d1H
	DB	096H
	DB	011H
	DB	00H
	DB	00H
	DB	0f8H
	DB	01eH
	DB	0dH
	DB	0dH
CONST	ENDS
;	COMDAT ?VT@?$CVarTypeInfo@PAI@ATL@@2GB
CONST	SEGMENT
?VT@?$CVarTypeInfo@PAI@ATL@@2GB DW 04013H		; ATL::CVarTypeInfo<unsigned int *>::VT
CONST	ENDS
;	COMDAT ?pmField@?$CVarTypeInfo@I@ATL@@2QQtagVARIANT@@IQ3@
CONST	SEGMENT
?pmField@?$CVarTypeInfo@I@ATL@@2QQtagVARIANT@@IQ3@ DD 08H ; ATL::CVarTypeInfo<unsigned int>::pmField
CONST	ENDS
;	COMDAT ?VT@?$CVarTypeInfo@I@ATL@@2GB
CONST	SEGMENT
?VT@?$CVarTypeInfo@I@ATL@@2GB DW 013H			; ATL::CVarTypeInfo<unsigned int>::VT
CONST	ENDS
;	COMDAT ?min_exponent10@?$numeric_limits@O@std@@2HB
CONST	SEGMENT
?min_exponent10@?$numeric_limits@O@std@@2HB DD 0fffffecdH ; std::numeric_limits<long double>::min_exponent10
CONST	ENDS
;	COMDAT ?min_exponent@?$numeric_limits@O@std@@2HB
CONST	SEGMENT
?min_exponent@?$numeric_limits@O@std@@2HB DD 0fffffc03H	; std::numeric_limits<long double>::min_exponent
CONST	ENDS
;	COMDAT ?pmField@?$CVarTypeInfo@PAH@ATL@@2QQtagVARIANT@@PAHQ3@
CONST	SEGMENT
?pmField@?$CVarTypeInfo@PAH@ATL@@2QQtagVARIANT@@PAHQ3@ DD 08H ; ATL::CVarTypeInfo<int *>::pmField
CONST	ENDS
;	COMDAT ?VT@?$CVarTypeInfo@PAH@ATL@@2GB
CONST	SEGMENT
?VT@?$CVarTypeInfo@PAH@ATL@@2GB DW 04003H		; ATL::CVarTypeInfo<int *>::VT
CONST	ENDS
;	COMDAT ?max_exponent10@?$numeric_limits@O@std@@2HB
CONST	SEGMENT
?max_exponent10@?$numeric_limits@O@std@@2HB DD 0134H	; std::numeric_limits<long double>::max_exponent10
CONST	ENDS
;	COMDAT ?max_exponent@?$numeric_limits@O@std@@2HB
CONST	SEGMENT
?max_exponent@?$numeric_limits@O@std@@2HB DD 0400H	; std::numeric_limits<long double>::max_exponent
CONST	ENDS
;	COMDAT ?max_digits10@?$numeric_limits@O@std@@2HB
CONST	SEGMENT
?max_digits10@?$numeric_limits@O@std@@2HB DD 011H	; std::numeric_limits<long double>::max_digits10
CONST	ENDS
;	COMDAT ?pmField@?$CVarTypeInfo@H@ATL@@2QQtagVARIANT@@HQ3@
CONST	SEGMENT
?pmField@?$CVarTypeInfo@H@ATL@@2QQtagVARIANT@@HQ3@ DD 08H ; ATL::CVarTypeInfo<int>::pmField
CONST	ENDS
;	COMDAT ?digits10@?$numeric_limits@O@std@@2HB
CONST	SEGMENT
?digits10@?$numeric_limits@O@std@@2HB DD 0fH		; std::numeric_limits<long double>::digits10
CONST	ENDS
;	COMDAT ?VT@?$CVarTypeInfo@H@ATL@@2GB
CONST	SEGMENT
?VT@?$CVarTypeInfo@H@ATL@@2GB DW 03H			; ATL::CVarTypeInfo<int>::VT
CONST	ENDS
;	COMDAT ?digits@?$numeric_limits@O@std@@2HB
CONST	SEGMENT
?digits@?$numeric_limits@O@std@@2HB DD 035H		; std::numeric_limits<long double>::digits
CONST	ENDS
;	COMDAT ?MAX_TYPE@CRegParser@ATL@@1HB
CONST	SEGMENT
?MAX_TYPE@CRegParser@ATL@@1HB DD 01000H			; ATL::CRegParser::MAX_TYPE
CONST	ENDS
;	COMDAT ?cbNeverDelete@CRegParser@ATL@@1HB
CONST	SEGMENT
?cbNeverDelete@CRegParser@ATL@@1HB DD 0cH		; ATL::CRegParser::cbNeverDelete
CONST	ENDS
;	COMDAT ?rgszNeverDelete@CRegParser@ATL@@1QBQB_WB
CONST	SEGMENT
?rgszNeverDelete@CRegParser@ATL@@1QBQB_WB DD FLAT:??_C@_1M@EJNEECMJ@?$AAA?$AAp?$AAp?$AAI?$AAD?$AA?$AA@ ; ATL::CRegParser::rgszNeverDelete
	DD	FLAT:??_C@_1M@KANJNLFF@?$AAC?$AAL?$AAS?$AAI?$AAD?$AA?$AA@
	DD	FLAT:??_C@_1CK@OEKPKBNA@?$AAC?$AAo?$AAm?$AAp?$AAo?$AAn?$AAe?$AAn?$AAt?$AA?5?$AAC?$AAa?$AAt?$AAe?$AAg?$AAo?$AAr?$AAi?$AAe?$AAs?$AA?$AA@
	DD	FLAT:??_C@_1BC@NKMMNMGL@?$AAF?$AAi?$AAl?$AAe?$AAT?$AAy?$AAp?$AAe?$AA?$AA@
	DD	FLAT:??_C@_1BE@EKPAFMCP@?$AAI?$AAn?$AAt?$AAe?$AAr?$AAf?$AAa?$AAc?$AAe?$AA?$AA@
	DD	FLAT:??_C@_1BC@MAICEHGI@?$AAH?$AAa?$AAr?$AAd?$AAw?$AAa?$AAr?$AAe?$AA?$AA@
	DD	FLAT:??_C@_19HLLLM@?$AAM?$AAi?$AAm?$AAe?$AA?$AA@
	DD	FLAT:??_C@_17OMAOINJK@?$AAS?$AAA?$AAM?$AA?$AA@
	DD	FLAT:??_C@_1BC@IBECJAAI@?$AAS?$AAE?$AAC?$AAU?$AAR?$AAI?$AAT?$AAY?$AA?$AA@
	DD	FLAT:??_C@_1O@GBFINDKL@?$AAS?$AAY?$AAS?$AAT?$AAE?$AAM?$AA?$AA@
	DD	FLAT:??_C@_1BC@EAHCMADO@?$AAS?$AAo?$AAf?$AAt?$AAw?$AAa?$AAr?$AAe?$AA?$AA@
	DD	FLAT:??_C@_1BA@JIHHIEDE@?$AAT?$AAy?$AAp?$AAe?$AAL?$AAi?$AAb?$AA?$AA@
CONST	ENDS
;	COMDAT ?pmField@?$CVarTypeInfo@PAG@ATL@@2QQtagVARIANT@@PAGQ3@
CONST	SEGMENT
?pmField@?$CVarTypeInfo@PAG@ATL@@2QQtagVARIANT@@PAGQ3@ DD 08H ; ATL::CVarTypeInfo<unsigned short *>::pmField
CONST	ENDS
;	COMDAT ?VT@?$CVarTypeInfo@PAG@ATL@@2GB
CONST	SEGMENT
?VT@?$CVarTypeInfo@PAG@ATL@@2GB DW 04012H		; ATL::CVarTypeInfo<unsigned short *>::VT
CONST	ENDS
;	COMDAT ?pmField@?$CVarTypeInfo@G@ATL@@2QQtagVARIANT@@GQ3@
CONST	SEGMENT
?pmField@?$CVarTypeInfo@G@ATL@@2QQtagVARIANT@@GQ3@ DD 08H ; ATL::CVarTypeInfo<unsigned short>::pmField
CONST	ENDS
;	COMDAT ?VT@?$CVarTypeInfo@G@ATL@@2GB
CONST	SEGMENT
?VT@?$CVarTypeInfo@G@ATL@@2GB DW 012H			; ATL::CVarTypeInfo<unsigned short>::VT
CONST	ENDS
;	COMDAT ?min_exponent10@?$numeric_limits@N@std@@2HB
CONST	SEGMENT
?min_exponent10@?$numeric_limits@N@std@@2HB DD 0fffffecdH ; std::numeric_limits<double>::min_exponent10
CONST	ENDS
;	COMDAT ?min_exponent@?$numeric_limits@N@std@@2HB
CONST	SEGMENT
?min_exponent@?$numeric_limits@N@std@@2HB DD 0fffffc03H	; std::numeric_limits<double>::min_exponent
CONST	ENDS
;	COMDAT ?pmField@?$CVarTypeInfo@PAF@ATL@@2QQtagVARIANT@@PAFQ3@
CONST	SEGMENT
?pmField@?$CVarTypeInfo@PAF@ATL@@2QQtagVARIANT@@PAFQ3@ DD 08H ; ATL::CVarTypeInfo<short *>::pmField
CONST	ENDS
;	COMDAT ?VT@?$CVarTypeInfo@PAF@ATL@@2GB
CONST	SEGMENT
?VT@?$CVarTypeInfo@PAF@ATL@@2GB DW 04002H		; ATL::CVarTypeInfo<short *>::VT
CONST	ENDS
;	COMDAT ?max_exponent10@?$numeric_limits@N@std@@2HB
CONST	SEGMENT
?max_exponent10@?$numeric_limits@N@std@@2HB DD 0134H	; std::numeric_limits<double>::max_exponent10
CONST	ENDS
;	COMDAT ?max_exponent@?$numeric_limits@N@std@@2HB
CONST	SEGMENT
?max_exponent@?$numeric_limits@N@std@@2HB DD 0400H	; std::numeric_limits<double>::max_exponent
CONST	ENDS
;	COMDAT ?MAX_VALUE@CRegParser@ATL@@1HB
CONST	SEGMENT
?MAX_VALUE@CRegParser@ATL@@1HB DD 01000H		; ATL::CRegParser::MAX_VALUE
CONST	ENDS
;	COMDAT ?max_digits10@?$numeric_limits@N@std@@2HB
CONST	SEGMENT
?max_digits10@?$numeric_limits@N@std@@2HB DD 011H	; std::numeric_limits<double>::max_digits10
CONST	ENDS
;	COMDAT __GUID_7fd52380_4e07_101b_ae2d_08002b2ec713
CONST	SEGMENT
__GUID_7fd52380_4e07_101b_ae2d_08002b2ec713 DD 07fd52380H
	DW	04e07H
	DW	0101bH
	DB	0aeH
	DB	02dH
	DB	08H
	DB	00H
	DB	02bH
	DB	02eH
	DB	0c7H
	DB	013H
CONST	ENDS
;	COMDAT ?pmField@?$CVarTypeInfo@F@ATL@@2QQtagVARIANT@@FQ3@
CONST	SEGMENT
?pmField@?$CVarTypeInfo@F@ATL@@2QQtagVARIANT@@FQ3@ DD 08H ; ATL::CVarTypeInfo<short>::pmField
CONST	ENDS
;	COMDAT ?digits10@?$numeric_limits@N@std@@2HB
CONST	SEGMENT
?digits10@?$numeric_limits@N@std@@2HB DD 0fH		; std::numeric_limits<double>::digits10
CONST	ENDS
;	COMDAT ?VT@?$CVarTypeInfo@F@ATL@@2GB
CONST	SEGMENT
?VT@?$CVarTypeInfo@F@ATL@@2GB DW 02H			; ATL::CVarTypeInfo<short>::VT
CONST	ENDS
;	COMDAT ?digits@?$numeric_limits@N@std@@2HB
CONST	SEGMENT
?digits@?$numeric_limits@N@std@@2HB DD 035H		; std::numeric_limits<double>::digits
CONST	ENDS
;	COMDAT __GUID_00000109_0000_0000_c000_000000000046
CONST	SEGMENT
__GUID_00000109_0000_0000_c000_000000000046 DD 0109H
	DW	00H
	DW	00H
	DB	0c0H
	DB	00H
	DB	00H
	DB	00H
	DB	00H
	DB	00H
	DB	00H
	DB	046H
CONST	ENDS
;	COMDAT ?table_size@?$ctype@D@std@@2IB
CONST	SEGMENT
?table_size@?$ctype@D@std@@2IB DD 0100H			; std::ctype<char>::table_size
CONST	ENDS
;	COMDAT ?pmField@?$CVarTypeInfo@PAE@ATL@@2QQtagVARIANT@@PAEQ3@
CONST	SEGMENT
?pmField@?$CVarTypeInfo@PAE@ATL@@2QQtagVARIANT@@PAEQ3@ DD 08H ; ATL::CVarTypeInfo<unsigned char *>::pmField
CONST	ENDS
;	COMDAT ?VT@?$CVarTypeInfo@PAE@ATL@@2GB
CONST	SEGMENT
?VT@?$CVarTypeInfo@PAE@ATL@@2GB DW 04011H		; ATL::CVarTypeInfo<unsigned char *>::VT
CONST	ENDS
;	COMDAT ?pmField@?$CVarTypeInfo@PAD@ATL@@2QQtagVARIANT@@PADQ3@
CONST	SEGMENT
?pmField@?$CVarTypeInfo@PAD@ATL@@2QQtagVARIANT@@PADQ3@ DD 08H ; ATL::CVarTypeInfo<char *>::pmField
CONST	ENDS
;	COMDAT ?VT@?$CVarTypeInfo@PAD@ATL@@2GB
CONST	SEGMENT
?VT@?$CVarTypeInfo@PAD@ATL@@2GB DW 04010H		; ATL::CVarTypeInfo<char *>::VT
CONST	ENDS
;	COMDAT _IID_IRegistrar
CONST	SEGMENT
_IID_IRegistrar DD 044ec053bH
	DW	0400fH
	DW	011d0H
	DB	09dH
	DB	0cdH
	DB	00H
	DB	0a0H
	DB	0c9H
	DB	03H
	DB	091H
	DB	0d3H
CONST	ENDS
;	COMDAT ?min_exponent10@?$numeric_limits@M@std@@2HB
CONST	SEGMENT
?min_exponent10@?$numeric_limits@M@std@@2HB DD 0ffffffdbH ; std::numeric_limits<float>::min_exponent10
CONST	ENDS
;	COMDAT ?min_exponent@?$numeric_limits@M@std@@2HB
CONST	SEGMENT
?min_exponent@?$numeric_limits@M@std@@2HB DD 0ffffff83H	; std::numeric_limits<float>::min_exponent
CONST	ENDS
;	COMDAT ?pmField@?$CVarTypeInfo@E@ATL@@2QQtagVARIANT@@EQ3@
CONST	SEGMENT
?pmField@?$CVarTypeInfo@E@ATL@@2QQtagVARIANT@@EQ3@ DD 08H ; ATL::CVarTypeInfo<unsigned char>::pmField
CONST	ENDS
;	COMDAT ?VT@?$CVarTypeInfo@E@ATL@@2GB
CONST	SEGMENT
?VT@?$CVarTypeInfo@E@ATL@@2GB DW 011H			; ATL::CVarTypeInfo<unsigned char>::VT
CONST	ENDS
;	COMDAT ?max_exponent10@?$numeric_limits@M@std@@2HB
CONST	SEGMENT
?max_exponent10@?$numeric_limits@M@std@@2HB DD 026H	; std::numeric_limits<float>::max_exponent10
CONST	ENDS
;	COMDAT ?max_exponent@?$numeric_limits@M@std@@2HB
CONST	SEGMENT
?max_exponent@?$numeric_limits@M@std@@2HB DD 080H	; std::numeric_limits<float>::max_exponent
CONST	ENDS
;	COMDAT ?max_digits10@?$numeric_limits@M@std@@2HB
CONST	SEGMENT
?max_digits10@?$numeric_limits@M@std@@2HB DD 09H	; std::numeric_limits<float>::max_digits10
CONST	ENDS
;	COMDAT ?pmField@?$CVarTypeInfo@D@ATL@@2QQtagVARIANT@@DQ3@
CONST	SEGMENT
?pmField@?$CVarTypeInfo@D@ATL@@2QQtagVARIANT@@DQ3@ DD 08H ; ATL::CVarTypeInfo<char>::pmField
CONST	ENDS
;	COMDAT ?digits10@?$numeric_limits@M@std@@2HB
CONST	SEGMENT
?digits10@?$numeric_limits@M@std@@2HB DD 06H		; std::numeric_limits<float>::digits10
CONST	ENDS
;	COMDAT ?VT@?$CVarTypeInfo@D@ATL@@2GB
CONST	SEGMENT
?VT@?$CVarTypeInfo@D@ATL@@2GB DW 010H			; ATL::CVarTypeInfo<char>::VT
CONST	ENDS
;	COMDAT ?digits@?$numeric_limits@M@std@@2HB
CONST	SEGMENT
?digits@?$numeric_limits@M@std@@2HB DD 018H		; std::numeric_limits<float>::digits
CONST	ENDS
;	COMDAT __GUID_9b7e4c04_342c_4106_a19f_4f2704f689f0
CONST	SEGMENT
__GUID_9b7e4c04_342c_4106_a19f_4f2704f689f0 DD 09b7e4c04H
	DW	0342cH
	DW	04106H
	DB	0a1H
	DB	09fH
	DB	04fH
	DB	027H
	DB	04H
	DB	0f6H
	DB	089H
	DB	0f0H
CONST	ENDS
;	COMDAT _CLSID_Registrar
CONST	SEGMENT
_CLSID_Registrar DD 044ec053aH
	DW	0400fH
	DW	011d0H
	DB	09dH
	DB	0cdH
	DB	00H
	DB	0a0H
	DB	0c9H
	DB	03H
	DB	091H
	DB	0d3H
CONST	ENDS
;	COMDAT ?digits10@?$numeric_limits@_K@std@@2HB
CONST	SEGMENT
?digits10@?$numeric_limits@_K@std@@2HB DD 013H		; std::numeric_limits<unsigned __int64>::digits10
CONST	ENDS
;	COMDAT ?digits@?$numeric_limits@_K@std@@2HB
CONST	SEGMENT
?digits@?$numeric_limits@_K@std@@2HB DD 040H		; std::numeric_limits<unsigned __int64>::digits
CONST	ENDS
;	COMDAT ?is_signed@?$numeric_limits@_K@std@@2_NB
CONST	SEGMENT
?is_signed@?$numeric_limits@_K@std@@2_NB DB 00H		; std::numeric_limits<unsigned __int64>::is_signed
CONST	ENDS
CONST	SEGMENT
_LightOrbitRadius DD 041a00000r			; 20
_LightOrbitSpeed DD 03f333333r			; 0.7
CONST	ENDS
;	COMDAT ?digits10@?$numeric_limits@_J@std@@2HB
CONST	SEGMENT
?digits10@?$numeric_limits@_J@std@@2HB DD 012H		; std::numeric_limits<__int64>::digits10
CONST	ENDS
;	COMDAT ?digits@?$numeric_limits@_J@std@@2HB
CONST	SEGMENT
?digits@?$numeric_limits@_J@std@@2HB DD 03fH		; std::numeric_limits<__int64>::digits
CONST	ENDS
;	COMDAT ?is_signed@?$numeric_limits@_J@std@@2_NB
CONST	SEGMENT
?is_signed@?$numeric_limits@_J@std@@2_NB DB 01H		; std::numeric_limits<__int64>::is_signed
CONST	ENDS
;	COMDAT ?value@?$_Sizeof@U_Nil@std@@U12@U12@U12@U12@U12@U12@U12@@std@@2IB
CONST	SEGMENT
?value@?$_Sizeof@U_Nil@std@@U12@U12@U12@U12@U12@U12@U12@@std@@2IB DD 00H ; std::_Sizeof<std::_Nil,std::_Nil,std::_Nil,std::_Nil,std::_Nil,std::_Nil,std::_Nil,std::_Nil>::value
CONST	ENDS
_DATA	SEGMENT
?Interocular@@3MA DD 03f266666r			; 0.65	; Interocular
?SpecularPower@@3MA DD 043800000r		; 256	; SpecularPower
_DATA	ENDS
;	COMDAT ?digits10@?$numeric_limits@K@std@@2HB
CONST	SEGMENT
?digits10@?$numeric_limits@K@std@@2HB DD 09H		; std::numeric_limits<unsigned long>::digits10
CONST	ENDS
;	COMDAT ?digits@?$numeric_limits@K@std@@2HB
CONST	SEGMENT
?digits@?$numeric_limits@K@std@@2HB DD 020H		; std::numeric_limits<unsigned long>::digits
CONST	ENDS
;	COMDAT ?is_signed@?$numeric_limits@K@std@@2_NB
CONST	SEGMENT
?is_signed@?$numeric_limits@K@std@@2_NB DB 00H		; std::numeric_limits<unsigned long>::is_signed
CONST	ENDS
;	COMDAT __GUID_fc4801a3_2ba9_11cf_a229_00aa003d7352
CONST	SEGMENT
__GUID_fc4801a3_2ba9_11cf_a229_00aa003d7352 DD 0fc4801a3H
	DW	02ba9H
	DW	011cfH
	DB	0a2H
	DB	029H
	DB	00H
	DB	0aaH
	DB	00H
	DB	03dH
	DB	073H
	DB	052H
CONST	ENDS
;	COMDAT ??_C@_1O@JDLOHAN@?$AAD?$AAe?$AAl?$AAe?$AAt?$AAe?$AA?$AA@
CONST	SEGMENT
??_C@_1O@JDLOHAN@?$AAD?$AAe?$AAl?$AAe?$AAt?$AAe?$AA?$AA@ DB 'D', 00H, 'e', 00H
	DB	'l', 00H, 'e', 00H, 't', 00H, 'e', 00H, 00H, 00H ; `string'
CONST	ENDS
;	COMDAT ?szDelete@ATL@@3QB_WB
CONST	SEGMENT
?szDelete@ATL@@3QB_WB DD FLAT:??_C@_1O@JDLOHAN@?$AAD?$AAe?$AAl?$AAe?$AAt?$AAe?$AA?$AA@ ; ATL::szDelete
CONST	ENDS
;	COMDAT ??_C@_1BC@GCKHIPE@?$AAN?$AAo?$AAR?$AAe?$AAm?$AAo?$AAv?$AAe?$AA?$AA@
CONST	SEGMENT
??_C@_1BC@GCKHIPE@?$AAN?$AAo?$AAR?$AAe?$AAm?$AAo?$AAv?$AAe?$AA?$AA@ DB 'N'
	DB	00H, 'o', 00H, 'R', 00H, 'e', 00H, 'm', 00H, 'o', 00H, 'v', 00H
	DB	'e', 00H, 00H, 00H				; `string'
CONST	ENDS
;	COMDAT ?szNoRemove@ATL@@3QB_WB
CONST	SEGMENT
?szNoRemove@ATL@@3QB_WB DD FLAT:??_C@_1BC@GCKHIPE@?$AAN?$AAo?$AAR?$AAe?$AAm?$AAo?$AAv?$AAe?$AA?$AA@ ; ATL::szNoRemove
CONST	ENDS
;	COMDAT ??_C@_1BI@JFAIJMHL@?$AAF?$AAo?$AAr?$AAc?$AAe?$AAR?$AAe?$AAm?$AAo?$AAv?$AAe?$AA?$AA@
CONST	SEGMENT
??_C@_1BI@JFAIJMHL@?$AAF?$AAo?$AAr?$AAc?$AAe?$AAR?$AAe?$AAm?$AAo?$AAv?$AAe?$AA?$AA@ DB 'F'
	DB	00H, 'o', 00H, 'r', 00H, 'c', 00H, 'e', 00H, 'R', 00H, 'e', 00H
	DB	'm', 00H, 'o', 00H, 'v', 00H, 'e', 00H, 00H, 00H ; `string'
CONST	ENDS
;	COMDAT ?szForceRemove@ATL@@3QB_WB
CONST	SEGMENT
?szForceRemove@ATL@@3QB_WB DD FLAT:??_C@_1BI@JFAIJMHL@?$AAF?$AAo?$AAr?$AAc?$AAe?$AAR?$AAe?$AAm?$AAo?$AAv?$AAe?$AA?$AA@ ; ATL::szForceRemove
CONST	ENDS
;	COMDAT ??_C@_17LLMMEOJD@?$AAV?$AAa?$AAl?$AA?$AA@
CONST	SEGMENT
??_C@_17LLMMEOJD@?$AAV?$AAa?$AAl?$AA?$AA@ DB 'V', 00H, 'a', 00H, 'l', 00H
	DB	00H, 00H					; `string'
CONST	ENDS
;	COMDAT ?none@?$_Locbase@H@std@@2HB
CONST	SEGMENT
?none@?$_Locbase@H@std@@2HB DD 00H			; std::_Locbase<int>::none
CONST	ENDS
;	COMDAT ?szValToken@ATL@@3QB_WB
CONST	SEGMENT
?szValToken@ATL@@3QB_WB DD FLAT:??_C@_17LLMMEOJD@?$AAV?$AAa?$AAl?$AA?$AA@ ; ATL::szValToken
CONST	ENDS
;	COMDAT ??_C@_13OPKGLAFF@?$AAB?$AA?$AA@
CONST	SEGMENT
??_C@_13OPKGLAFF@?$AAB?$AA?$AA@ DB 'B', 00H, 00H, 00H	; `string'
CONST	ENDS
;	COMDAT ?all@?$_Locbase@H@std@@2HB
CONST	SEGMENT
?all@?$_Locbase@H@std@@2HB DD 03fH			; std::_Locbase<int>::all
CONST	ENDS
;	COMDAT ?szBinaryVal@ATL@@3QB_WB
CONST	SEGMENT
?szBinaryVal@ATL@@3QB_WB DD FLAT:??_C@_13OPKGLAFF@?$AAB?$AA?$AA@ ; ATL::szBinaryVal
CONST	ENDS
;	COMDAT ?_Max@?$AtlLimits@_K@ATL@@2_KB
CONST	SEGMENT
?_Max@?$AtlLimits@_K@ATL@@2_KB DQ ffffffffffffffffH	; ATL::AtlLimits<unsigned __int64>::_Max
CONST	ENDS
;	COMDAT ??_C@_13MKMNOPIJ@?$AAD?$AA?$AA@
CONST	SEGMENT
??_C@_13MKMNOPIJ@?$AAD?$AA?$AA@ DB 'D', 00H, 00H, 00H	; `string'
CONST	ENDS
;	COMDAT ?messages@?$_Locbase@H@std@@2HB
CONST	SEGMENT
?messages@?$_Locbase@H@std@@2HB DD 020H			; std::_Locbase<int>::messages
CONST	ENDS
;	COMDAT ?_Min@?$AtlLimits@_K@ATL@@2_KB
CONST	SEGMENT
?_Min@?$AtlLimits@_K@ATL@@2_KB DQ 0000000000000000H	; ATL::AtlLimits<unsigned __int64>::_Min
CONST	ENDS
;	COMDAT ?szDwordVal@ATL@@3QB_WB
CONST	SEGMENT
?szDwordVal@ATL@@3QB_WB DD FLAT:??_C@_13MKMNOPIJ@?$AAD?$AA?$AA@ ; ATL::szDwordVal
CONST	ENDS
;	COMDAT ??_C@_13LHMFKAAD@?$AAM?$AA?$AA@
CONST	SEGMENT
??_C@_13LHMFKAAD@?$AAM?$AA?$AA@ DB 'M', 00H, 00H, 00H	; `string'
CONST	ENDS
;	COMDAT ?time@?$_Locbase@H@std@@2HB
CONST	SEGMENT
?time@?$_Locbase@H@std@@2HB DD 010H			; std::_Locbase<int>::time
CONST	ENDS
;	COMDAT ?multiszStringVal@ATL@@3QB_WB
CONST	SEGMENT
?multiszStringVal@ATL@@3QB_WB DD FLAT:??_C@_13LHMFKAAD@?$AAM?$AA?$AA@ ; ATL::multiszStringVal
CONST	ENDS
;	COMDAT ??_C@_13HADIAKP@?$AAS?$AA?$AA@
CONST	SEGMENT
??_C@_13HADIAKP@?$AAS?$AA?$AA@ DB 'S', 00H, 00H, 00H	; `string'
CONST	ENDS
;	COMDAT ?numeric@?$_Locbase@H@std@@2HB
CONST	SEGMENT
?numeric@?$_Locbase@H@std@@2HB DD 08H			; std::_Locbase<int>::numeric
CONST	ENDS
;	COMDAT ?szStringVal@ATL@@3QB_WB
CONST	SEGMENT
?szStringVal@ATL@@3QB_WB DD FLAT:??_C@_13HADIAKP@?$AAS?$AA?$AA@ ; ATL::szStringVal
CONST	ENDS
;	COMDAT ?digits10@?$numeric_limits@J@std@@2HB
CONST	SEGMENT
?digits10@?$numeric_limits@J@std@@2HB DD 09H		; std::numeric_limits<long>::digits10
CONST	ENDS
;	COMDAT ?chEquals@ATL@@3_WB
CONST	SEGMENT
?chEquals@ATL@@3_WB DW 03dH				; ATL::chEquals
CONST	ENDS
;	COMDAT ?monetary@?$_Locbase@H@std@@2HB
CONST	SEGMENT
?monetary@?$_Locbase@H@std@@2HB DD 04H			; std::_Locbase<int>::monetary
CONST	ENDS
;	COMDAT ?chQuote@ATL@@3_WB
CONST	SEGMENT
?chQuote@ATL@@3_WB DW 027H				; ATL::chQuote
CONST	ENDS
;	COMDAT ?chLeftBracket@ATL@@3_WB
CONST	SEGMENT
?chLeftBracket@ATL@@3_WB DW 07bH			; ATL::chLeftBracket
CONST	ENDS
;	COMDAT ?ctype@?$_Locbase@H@std@@2HB
CONST	SEGMENT
?ctype@?$_Locbase@H@std@@2HB DD 02H			; std::_Locbase<int>::ctype
CONST	ENDS
;	COMDAT ?chRightBracket@ATL@@3_WB
CONST	SEGMENT
?chRightBracket@ATL@@3_WB DW 07dH			; ATL::chRightBracket
CONST	ENDS
;	COMDAT ?digits@?$numeric_limits@J@std@@2HB
CONST	SEGMENT
?digits@?$numeric_limits@J@std@@2HB DD 01fH		; std::numeric_limits<long>::digits
CONST	ENDS
;	COMDAT ?chDirSep@ATL@@3_WB
CONST	SEGMENT
?chDirSep@ATL@@3_WB DW 05cH				; ATL::chDirSep
CONST	ENDS
;	COMDAT ?collate@?$_Locbase@H@std@@2HB
CONST	SEGMENT
?collate@?$_Locbase@H@std@@2HB DD 01H			; std::_Locbase<int>::collate
CONST	ENDS
;	COMDAT ?_Max@?$AtlLimits@_J@ATL@@2_JB
CONST	SEGMENT
?_Max@?$AtlLimits@_J@ATL@@2_JB DQ 7fffffffffffffffH	; ATL::AtlLimits<__int64>::_Max
CONST	ENDS
;	COMDAT ?_Min@?$AtlLimits@_J@ATL@@2_JB
CONST	SEGMENT
?_Min@?$AtlLimits@_J@ATL@@2_JB DQ 8000000000000000H	; ATL::AtlLimits<__int64>::_Min
CONST	ENDS
;	COMDAT ?is_signed@?$numeric_limits@J@std@@2_NB
CONST	SEGMENT
?is_signed@?$numeric_limits@J@std@@2_NB DB 01H		; std::numeric_limits<long>::is_signed
CONST	ENDS
;	COMDAT ?value@?$integral_constant@_N$00@std@@2_NB
CONST	SEGMENT
?value@?$integral_constant@_N$00@std@@2_NB DB 01H	; std::integral_constant<bool,1>::value
CONST	ENDS
;	COMDAT ?_Max@?$AtlLimits@K@ATL@@2KB
CONST	SEGMENT
?_Max@?$AtlLimits@K@ATL@@2KB DD 0ffffffffH		; ATL::AtlLimits<unsigned long>::_Max
CONST	ENDS
;	COMDAT ?_Min@?$AtlLimits@K@ATL@@2KB
CONST	SEGMENT
?_Min@?$AtlLimits@K@ATL@@2KB DD 00H			; ATL::AtlLimits<unsigned long>::_Min
CONST	ENDS
PUBLIC	_wWinMain@16
PUBLIC	_HRESULT_FROM_WIN32
PUBLIC	_cosf
PUBLIC	_sinf
PUBLIC	?cos@@YAMM@Z					; cos
PUBLIC	?sin@@YAMM@Z					; sin
PUBLIC	??0D3DXVECTOR3@@QAE@MMM@Z			; D3DXVECTOR3::D3DXVECTOR3
PUBLIC	??BD3DXVECTOR3@@QAEPAMXZ			; D3DXVECTOR3::operator float *
PUBLIC	??HD3DXVECTOR3@@QBE?AU0@ABU0@@Z			; D3DXVECTOR3::operator+
PUBLIC	??DD3DXVECTOR3@@QBE?AU0@M@Z			; D3DXVECTOR3::operator*
PUBLIC	??0D3DXVECTOR4@@QAE@MMMM@Z			; D3DXVECTOR4::D3DXVECTOR4
PUBLIC	??BD3DXVECTOR4@@QAEPAMXZ			; D3DXVECTOR4::operator float *
PUBLIC	??BD3DXMATRIX@@QAEPAMXZ				; D3DXMATRIX::operator float *
PUBLIC	??2@YAPAXIPAX@Z					; operator new
PUBLIC	??3@YAXPAX0@Z					; operator delete
PUBLIC	?_AtlGetConversionACP@ATL@@YGIXZ		; ATL::_AtlGetConversionACP
PUBLIC	??BCTraceCategory@ATL@@QBEKXZ			; ATL::CTraceCategory::operator unsigned long
PUBLIC	?TraceV@CTrace@ATL@@QBAXPBDHKIPB_WPAD@Z		; ATL::CTrace::TraceV
PUBLIC	??0CTraceFileAndLineInfo@ATL@@QAE@PBDH@Z	; ATL::CTraceFileAndLineInfo::CTraceFileAndLineInfo
PUBLIC	??RCTraceFileAndLineInfo@ATL@@QBAXKIPB_WZZ	; ATL::CTraceFileAndLineInfo::operator()
PUBLIC	??0CAtlException@ATL@@QAE@J@Z			; ATL::CAtlException::CAtlException
PUBLIC	?AtlThrowImpl@ATL@@YGXJ@Z			; ATL::AtlThrowImpl
PUBLIC	?AtlThrowLastWin32@ATL@@YGXXZ			; ATL::AtlThrowLastWin32
PUBLIC	?_AtlInitializeCriticalSectionEx@ATL@@YAHPAU_RTL_CRITICAL_SECTION@@KK@Z ; ATL::_AtlInitializeCriticalSectionEx
PUBLIC	?ToRadians@@YAMM@Z				; ToRadians
PUBLIC	?length@?$char_traits@D@std@@SAIPBD@Z		; std::char_traits<char>::length
PUBLIC	?copy@?$char_traits@D@std@@SAPADPADPBDI@Z	; std::char_traits<char>::copy
PUBLIC	?move@?$char_traits@D@std@@SAPADPADPBDI@Z	; std::char_traits<char>::move
PUBLIC	?assign@?$char_traits@D@std@@SAXAADABD@Z	; std::char_traits<char>::assign
PUBLIC	??0_Container_proxy@std@@QAE@XZ			; std::_Container_proxy::_Container_proxy
PUBLIC	??0_Container_base12@std@@QAE@XZ		; std::_Container_base12::_Container_base12
PUBLIC	??1_Container_base12@std@@QAE@XZ		; std::_Container_base12::~_Container_base12
PUBLIC	?_Orphan_all@_Container_base12@std@@QAEXXZ	; std::_Container_base12::_Orphan_all
PUBLIC	??0?$allocator@D@std@@QAE@XZ			; std::allocator<char>::allocator<char>
PUBLIC	?deallocate@?$allocator@D@std@@QAEXPADI@Z	; std::allocator<char>::deallocate
PUBLIC	?allocate@?$allocator@D@std@@QAEPADI@Z		; std::allocator<char>::allocate
PUBLIC	?max_size@?$allocator@D@std@@QBEIXZ		; std::allocator<char>::max_size
PUBLIC	?max_size@?$allocator_traits@V?$allocator@D@std@@@std@@SAIABV?$allocator@D@2@@Z ; std::allocator_traits<std::allocator<char> >::max_size
PUBLIC	??0?$_Wrap_alloc@V?$allocator@D@std@@@std@@QAE@XZ ; std::_Wrap_alloc<std::allocator<char> >::_Wrap_alloc<std::allocator<char> >
PUBLIC	?allocate@?$_Wrap_alloc@V?$allocator@D@std@@@std@@QAEPADI@Z ; std::_Wrap_alloc<std::allocator<char> >::allocate
PUBLIC	?deallocate@?$_Wrap_alloc@V?$allocator@D@std@@@std@@QAEXPADI@Z ; std::_Wrap_alloc<std::allocator<char> >::deallocate
PUBLIC	?max_size@?$_Wrap_alloc@V?$allocator@D@std@@@std@@QBEIXZ ; std::_Wrap_alloc<std::allocator<char> >::max_size
PUBLIC	??0?$_String_val@U?$_Simple_types@D@std@@@std@@QAE@XZ ; std::_String_val<std::_Simple_types<char> >::_String_val<std::_Simple_types<char> >
PUBLIC	?_Myptr@?$_String_val@U?$_Simple_types@D@std@@@std@@QAEPADXZ ; std::_String_val<std::_Simple_types<char> >::_Myptr
PUBLIC	?_Myptr@?$_String_val@U?$_Simple_types@D@std@@@std@@QBEPBDXZ ; std::_String_val<std::_Simple_types<char> >::_Myptr
PUBLIC	??1?$_String_val@U?$_Simple_types@D@std@@@std@@QAE@XZ ; std::_String_val<std::_Simple_types<char> >::~_String_val<std::_Simple_types<char> >
PUBLIC	??0?$_String_alloc@$0A@U?$_String_base_types@DV?$allocator@D@std@@@std@@@std@@QAE@ABV?$allocator@D@1@@Z ; std::_String_alloc<0,std::_String_base_types<char,std::allocator<char> > >::_String_alloc<0,std::_String_base_types<char,std::allocator<char> > >
PUBLIC	??1?$_String_alloc@$0A@U?$_String_base_types@DV?$allocator@D@std@@@std@@@std@@QAE@XZ ; std::_String_alloc<0,std::_String_base_types<char,std::allocator<char> > >::~_String_alloc<0,std::_String_base_types<char,std::allocator<char> > >
PUBLIC	?_Alloc_proxy@?$_String_alloc@$0A@U?$_String_base_types@DV?$allocator@D@std@@@std@@@std@@QAEXXZ ; std::_String_alloc<0,std::_String_base_types<char,std::allocator<char> > >::_Alloc_proxy
PUBLIC	?_Free_proxy@?$_String_alloc@$0A@U?$_String_base_types@DV?$allocator@D@std@@@std@@@std@@QAEXXZ ; std::_String_alloc<0,std::_String_base_types<char,std::allocator<char> > >::_Free_proxy
PUBLIC	?_Getal@?$_String_alloc@$0A@U?$_String_base_types@DV?$allocator@D@std@@@std@@@std@@QBE?AU?$_Wrap_alloc@V?$allocator@D@std@@@2@XZ ; std::_String_alloc<0,std::_String_base_types<char,std::allocator<char> > >::_Getal
PUBLIC	??0?$basic_string@DU?$char_traits@D@std@@V?$allocator@D@2@@std@@QAE@PBD@Z ; std::basic_string<char,std::char_traits<char>,std::allocator<char> >::basic_string<char,std::char_traits<char>,std::allocator<char> >
PUBLIC	??1?$basic_string@DU?$char_traits@D@std@@V?$allocator@D@2@@std@@QAE@XZ ; std::basic_string<char,std::char_traits<char>,std::allocator<char> >::~basic_string<char,std::char_traits<char>,std::allocator<char> >
PUBLIC	?assign@?$basic_string@DU?$char_traits@D@std@@V?$allocator@D@2@@std@@QAEAAV12@ABV12@II@Z ; std::basic_string<char,std::char_traits<char>,std::allocator<char> >::assign
PUBLIC	?assign@?$basic_string@DU?$char_traits@D@std@@V?$allocator@D@2@@std@@QAEAAV12@PBDI@Z ; std::basic_string<char,std::char_traits<char>,std::allocator<char> >::assign
PUBLIC	?assign@?$basic_string@DU?$char_traits@D@std@@V?$allocator@D@2@@std@@QAEAAV12@PBD@Z ; std::basic_string<char,std::char_traits<char>,std::allocator<char> >::assign
PUBLIC	?erase@?$basic_string@DU?$char_traits@D@std@@V?$allocator@D@2@@std@@QAEAAV12@I@Z ; std::basic_string<char,std::char_traits<char>,std::allocator<char> >::erase
PUBLIC	?erase@?$basic_string@DU?$char_traits@D@std@@V?$allocator@D@2@@std@@QAEAAV12@II@Z ; std::basic_string<char,std::char_traits<char>,std::allocator<char> >::erase
PUBLIC	?size@?$basic_string@DU?$char_traits@D@std@@V?$allocator@D@2@@std@@QBEIXZ ; std::basic_string<char,std::char_traits<char>,std::allocator<char> >::size
PUBLIC	?max_size@?$basic_string@DU?$char_traits@D@std@@V?$allocator@D@2@@std@@QBEIXZ ; std::basic_string<char,std::char_traits<char>,std::allocator<char> >::max_size
PUBLIC	?_Copy@?$basic_string@DU?$char_traits@D@std@@V?$allocator@D@2@@std@@QAEXII@Z ; std::basic_string<char,std::char_traits<char>,std::allocator<char> >::_Copy
PUBLIC	?_Eos@?$basic_string@DU?$char_traits@D@std@@V?$allocator@D@2@@std@@QAEXI@Z ; std::basic_string<char,std::char_traits<char>,std::allocator<char> >::_Eos
PUBLIC	?_Grow@?$basic_string@DU?$char_traits@D@std@@V?$allocator@D@2@@std@@QAE_NI_N@Z ; std::basic_string<char,std::char_traits<char>,std::allocator<char> >::_Grow
PUBLIC	?_Inside@?$basic_string@DU?$char_traits@D@std@@V?$allocator@D@2@@std@@QAE_NPBD@Z ; std::basic_string<char,std::char_traits<char>,std::allocator<char> >::_Inside
PUBLIC	?_Tidy@?$basic_string@DU?$char_traits@D@std@@V?$allocator@D@2@@std@@QAEX_NI@Z ; std::basic_string<char,std::char_traits<char>,std::allocator<char> >::_Tidy
PUBLIC	?_Xlen@?$basic_string@DU?$char_traits@D@std@@V?$allocator@D@2@@std@@QBEXXZ ; std::basic_string<char,std::char_traits<char>,std::allocator<char> >::_Xlen
PUBLIC	?_Xran@?$basic_string@DU?$char_traits@D@std@@V?$allocator@D@2@@std@@QBEXXZ ; std::basic_string<char,std::char_traits<char>,std::allocator<char> >::_Xran
PUBLIC	??0id@locale@std@@QAE@I@Z			; std::locale::id::id
PUBLIC	??$_Debug_pointer@D@std@@YAXPBDPB_WI@Z		; std::_Debug_pointer<char>
PUBLIC	?generic_category@std@@YAABVerror_category@1@XZ	; std::generic_category
PUBLIC	?system_category@std@@YAABVerror_category@1@XZ	; std::system_category
PUBLIC	??0error_category@std@@QAE@XZ			; std::error_category::error_category
PUBLIC	??1error_category@std@@UAE@XZ			; std::error_category::~error_category
PUBLIC	?default_error_condition@error_category@std@@UBE?AVerror_condition@2@H@Z ; std::error_category::default_error_condition
PUBLIC	?equivalent@error_category@std@@UBE_NHABVerror_condition@2@@Z ; std::error_category::equivalent
PUBLIC	?equivalent@error_category@std@@UBE_NABVerror_code@2@H@Z ; std::error_category::equivalent
PUBLIC	??8error_category@std@@QBE_NABV01@@Z		; std::error_category::operator==
PUBLIC	??_Gerror_category@std@@UAEPAXI@Z		; std::error_category::`scalar deleting destructor'
PUBLIC	?value@error_code@std@@QBEHXZ			; std::error_code::value
PUBLIC	?category@error_code@std@@QBEABVerror_category@2@XZ ; std::error_code::category
PUBLIC	??0error_condition@std@@QAE@HABVerror_category@1@@Z ; std::error_condition::error_condition
PUBLIC	?value@error_condition@std@@QBEHXZ		; std::error_condition::value
PUBLIC	?category@error_condition@std@@QBEABVerror_category@2@XZ ; std::error_condition::category
PUBLIC	??8error_condition@std@@QBE_NABV01@@Z		; std::error_condition::operator==
PUBLIC	??0_Generic_error_category@std@@QAE@XZ		; std::_Generic_error_category::_Generic_error_category
PUBLIC	?name@_Generic_error_category@std@@UBEPBDXZ	; std::_Generic_error_category::name
PUBLIC	?message@_Generic_error_category@std@@UBE?AV?$basic_string@DU?$char_traits@D@std@@V?$allocator@D@2@@2@H@Z ; std::_Generic_error_category::message
PUBLIC	??1_Generic_error_category@std@@UAE@XZ		; std::_Generic_error_category::~_Generic_error_category
PUBLIC	??_G_Generic_error_category@std@@UAEPAXI@Z	; std::_Generic_error_category::`scalar deleting destructor'
PUBLIC	??0_Iostream_error_category@std@@QAE@XZ		; std::_Iostream_error_category::_Iostream_error_category
PUBLIC	?name@_Iostream_error_category@std@@UBEPBDXZ	; std::_Iostream_error_category::name
PUBLIC	?message@_Iostream_error_category@std@@UBE?AV?$basic_string@DU?$char_traits@D@std@@V?$allocator@D@2@@2@H@Z ; std::_Iostream_error_category::message
PUBLIC	??1_Iostream_error_category@std@@UAE@XZ		; std::_Iostream_error_category::~_Iostream_error_category
PUBLIC	??_G_Iostream_error_category@std@@UAEPAXI@Z	; std::_Iostream_error_category::`scalar deleting destructor'
PUBLIC	??0_System_error_category@std@@QAE@XZ		; std::_System_error_category::_System_error_category
PUBLIC	?name@_System_error_category@std@@UBEPBDXZ	; std::_System_error_category::name
PUBLIC	?message@_System_error_category@std@@UBE?AV?$basic_string@DU?$char_traits@D@std@@V?$allocator@D@2@@2@H@Z ; std::_System_error_category::message
PUBLIC	?default_error_condition@_System_error_category@std@@UBE?AVerror_condition@2@H@Z ; std::_System_error_category::default_error_condition
PUBLIC	??1_System_error_category@std@@UAE@XZ		; std::_System_error_category::~_System_error_category
PUBLIC	??_G_System_error_category@std@@UAEPAXI@Z	; std::_System_error_category::`scalar deleting destructor'
PUBLIC	?GetPosition@CModel@@QAE?AUD3DXVECTOR3@@XZ	; CModel::GetPosition
PUBLIC	?GetWorldMatrix@CModel@@QAE?AU_D3DXMATRIXA16@@XZ ; CModel::GetWorldMatrix
PUBLIC	?SetPosition@CModel@@QAEXUD3DXVECTOR3@@@Z	; CModel::SetPosition
PUBLIC	?SetRotation@CModel@@QAEXUD3DXVECTOR3@@@Z	; CModel::SetRotation
PUBLIC	?SetScale@CModel@@QAEXM@Z			; CModel::SetScale
PUBLIC	??_GCModel@@QAEPAXI@Z				; CModel::`scalar deleting destructor'
PUBLIC	?SetPosition@CCamera@@QAEXUD3DXVECTOR3@@@Z	; CCamera::SetPosition
PUBLIC	?SetRotation@CCamera@@QAEXUD3DXVECTOR3@@@Z	; CCamera::SetRotation
PUBLIC	?InitDevice@@YA_NXZ				; InitDevice
PUBLIC	?ReleaseResources@@YAXXZ			; ReleaseResources
PUBLIC	?LoadEffectFile@@YA_NXZ				; LoadEffectFile
PUBLIC	?InitScene@@YA_NXZ				; InitScene
PUBLIC	?UpdateScene@@YAXM@Z				; UpdateScene
PUBLIC	?RenderModels@@YAXPAVCCamera@@W4EStereoscopic@@M@Z ; RenderModels
PUBLIC	?RenderScene@@YAXXZ				; RenderScene
PUBLIC	?InitWindow@@YA_NPAUHINSTANCE__@@H@Z		; InitWindow
PUBLIC	?WndProc@@YGJPAUHWND__@@IIJ@Z			; WndProc
PUBLIC	??0?$CA2WEX@$0IA@@ATL@@QAE@PBD@Z		; ATL::CA2WEX<128>::CA2WEX<128>
PUBLIC	??1?$CA2WEX@$0IA@@ATL@@QAE@XZ			; ATL::CA2WEX<128>::~CA2WEX<128>
PUBLIC	??B?$CA2WEX@$0IA@@ATL@@QBEPA_WXZ		; ATL::CA2WEX<128>::operator wchar_t *
PUBLIC	?Init@?$CA2WEX@$0IA@@ATL@@AAEXPBDI@Z		; ATL::CA2WEX<128>::Init
PUBLIC	??$AtlConvFreeMemory@_W@ATL@@YAXPA_W0H@Z	; ATL::AtlConvFreeMemory<wchar_t>
PUBLIC	??$construct@PADAAPAD@?$_Wrap_alloc@V?$allocator@D@std@@@std@@QAEXPAPADAAPAD@Z ; std::_Wrap_alloc<std::allocator<char> >::construct<char *,char * &>
PUBLIC	??$destroy@PAD@?$_Wrap_alloc@V?$allocator@D@std@@@std@@QAEXPAPAD@Z ; std::_Wrap_alloc<std::allocator<char> >::destroy<char *>
PUBLIC	??$addressof@D@std@@YAPADAAD@Z			; std::addressof<char>
PUBLIC	??$AtlConvAllocMemory@_W@ATL@@YAXPAPA_WHPA_WH@Z	; ATL::AtlConvAllocMemory<wchar_t>
PUBLIC	??0?$allocator@U_Container_proxy@std@@@std@@QAE@XZ ; std::allocator<std::_Container_proxy>::allocator<std::_Container_proxy>
PUBLIC	?deallocate@?$allocator@U_Container_proxy@std@@@std@@QAEXPAU_Container_proxy@2@I@Z ; std::allocator<std::_Container_proxy>::deallocate
PUBLIC	?allocate@?$allocator@U_Container_proxy@std@@@std@@QAEPAU_Container_proxy@2@I@Z ; std::allocator<std::_Container_proxy>::allocate
PUBLIC	??$construct@U_Container_proxy@std@@U12@@?$allocator@U_Container_proxy@std@@@std@@QAEXPAU_Container_proxy@1@$$QAU21@@Z ; std::allocator<std::_Container_proxy>::construct<std::_Container_proxy,std::_Container_proxy>
PUBLIC	??$destroy@U_Container_proxy@std@@@?$allocator@U_Container_proxy@std@@@std@@QAEXPAU_Container_proxy@1@@Z ; std::allocator<std::_Container_proxy>::destroy<std::_Container_proxy>
PUBLIC	??$_Allocate@U_Container_proxy@std@@@std@@YAPAU_Container_proxy@0@IPAU10@@Z ; std::_Allocate<std::_Container_proxy>
PUBLIC	??$_Allocate@D@std@@YAPADIPAD@Z			; std::_Allocate<char>
PUBLIC	??$forward@AAPAD@std@@YAAAPADAAPAD@Z		; std::forward<char * &>
PUBLIC	??$construct@PADAAPAD@?$allocator_traits@V?$allocator@D@std@@@std@@SAXAAV?$allocator@D@1@PAPADAAPAD@Z ; std::allocator_traits<std::allocator<char> >::construct<char *,char * &>
PUBLIC	??$destroy@PAD@?$allocator_traits@V?$allocator@D@std@@@std@@SAXAAV?$allocator@D@1@PAPAD@Z ; std::allocator_traits<std::allocator<char> >::destroy<char *>
PUBLIC	??$forward@U_Container_proxy@std@@@std@@YA$$QAU_Container_proxy@0@AAU10@@Z ; std::forward<std::_Container_proxy>
PUBLIC	??$construct@PADAAPAD@?$allocator@D@std@@QAEXPAPADAAPAD@Z ; std::allocator<char>::construct<char *,char * &>
PUBLIC	??$destroy@PAD@?$allocator@D@std@@QAEXPAPAD@Z	; std::allocator<char>::destroy<char *>
PUBLIC	??_C@_15GANGMFKL@?$AA?$CF?$AAs?$AA?$AA@		; `string'
PUBLIC	??_C@_1KA@FFOMAGAF@?$AAc?$AA?3?$AA?2?$AAp?$AAr?$AAo?$AAg?$AAr?$AAa?$AAm?$AA?5?$AAf?$AAi?$AAl?$AAe?$AAs?$AA?5?$AA?$CI?$AAx?$AA8?$AA6?$AA?$CJ?$AA?2?$AAm?$AAi?$AAc?$AAr?$AAo?$AAs?$AAo?$AAf?$AAt@ ; `string'
PUBLIC	?__LINE__Var@?1??AtlThrowImpl@ATL@@YGXJ@Z@4JA	; `ATL::AtlThrowImpl'::`2'::__LINE__Var
PUBLIC	??_C@_0FC@IIOKBFPE@c?3?2program?5files?5?$CIx86?$CJ?2microsoft@ ; `string'
PUBLIC	??_C@_1CK@DFMKPFAK@?$AAA?$AAt?$AAl?$AAT?$AAh?$AAr?$AAo?$AAw?$AA?3?$AA?5?$AAh?$AAr?$AA?5?$AA?$DN?$AA?5?$AA0?$AAx?$AA?$CF?$AAx?$AA?6?$AA?$AA@ ; `string'
PUBLIC	__TI1?AVCAtlException@ATL@@
PUBLIC	__CTA1?AVCAtlException@ATL@@
PUBLIC	??_R0?AVCAtlException@ATL@@@8			; ATL::CAtlException `RTTI Type Descriptor'
PUBLIC	__CT??_R0?AVCAtlException@ATL@@@84
PUBLIC	??_C@_1BM@GBBOFEAE@?$AA_?$AA_?$AAa?$AAt?$AAl?$AA_?$AAc?$AAo?$AAn?$AAd?$AAV?$AAa?$AAl?$AA?$AA@ ; `string'
PUBLIC	??_7error_category@std@@6B@			; std::error_category::`vftable'
PUBLIC	??_7_Generic_error_category@std@@6B@		; std::_Generic_error_category::`vftable'
PUBLIC	??_C@_07DCLBNMLN@generic?$AA@			; `string'
PUBLIC	??_C@_0O@BFJCFAAK@unknown?5error?$AA@		; `string'
PUBLIC	??_7_Iostream_error_category@std@@6B@		; std::_Iostream_error_category::`vftable'
PUBLIC	??_C@_08LLGCOLLL@iostream?$AA@			; `string'
PUBLIC	??_C@_0BG@PADBLCHM@iostream?5stream?5error?$AA@	; `string'
PUBLIC	??_7_System_error_category@std@@6B@		; std::_System_error_category::`vftable'
PUBLIC	??_C@_06FHFOAHML@system?$AA@			; `string'
PUBLIC	?_Generic_object@?$_Error_objects@H@std@@2V_Generic_error_category@2@A ; std::_Error_objects<int>::_Generic_object
PUBLIC	?_Iostream_object@?$_Error_objects@H@std@@2V_Iostream_error_category@2@A ; std::_Error_objects<int>::_Iostream_object
PUBLIC	?_System_object@?$_Error_objects@H@std@@2V_System_error_category@2@A ; std::_Error_objects<int>::_System_object
PUBLIC	?id@?$num_put@DV?$back_insert_iterator@V?$basic_string@DU?$char_traits@D@std@@V?$allocator@D@2@@std@@@std@@@std@@2V0locale@2@A ; std::num_put<char,std::back_insert_iterator<std::basic_string<char,std::char_traits<char>,std::allocator<char> > > >::id
PUBLIC	?id@?$num_put@_WV?$back_insert_iterator@V?$basic_string@_WU?$char_traits@_W@std@@V?$allocator@_W@2@@std@@@std@@@std@@2V0locale@2@A ; std::num_put<wchar_t,std::back_insert_iterator<std::basic_string<wchar_t,std::char_traits<wchar_t>,std::allocator<wchar_t> > > >::id
PUBLIC	?BackgroundColour@@3UD3DXVECTOR4@@A		; BackgroundColour
PUBLIC	?AmbientColour@@3UD3DXVECTOR3@@A		; AmbientColour
PUBLIC	?Light1Colour@@3UD3DXVECTOR3@@A			; Light1Colour
PUBLIC	?Light2Colour@@3UD3DXVECTOR3@@A			; Light2Colour
PUBLIC	??_C@_06BACILOGA@fx_4_0?$AA@			; `string'
PUBLIC	??_C@_1CA@BKGEJCLC@?$AAS?$AAt?$AAe?$AAr?$AAe?$AAo?$AAs?$AAc?$AAo?$AAp?$AAi?$AAc?$AA?4?$AAf?$AAx?$AA?$AA@ ; `string'
PUBLIC	??_C@_1M@ILHOPKA@?$AAE?$AAr?$AAr?$AAo?$AAr?$AA?$AA@ ; `string'
PUBLIC	??_C@_1KK@KKJBPFMN@?$AAE?$AAr?$AAr?$AAo?$AAr?$AA?5?$AAl?$AAo?$AAa?$AAd?$AAi?$AAn?$AAg?$AA?5?$AAF?$AAX?$AA?5?$AAf?$AAi?$AAl?$AAe?$AA?4?$AA?5?$AAE?$AAn?$AAs?$AAu?$AAr?$AAe?$AA?5?$AAy?$AAo@ ; `string'
PUBLIC	??_C@_0N@JECPKPIH@VertexLitTex?$AA@		; `string'
PUBLIC	??_C@_0BA@MLEFJKEP@AdditiveTexTint?$AA@		; `string'
PUBLIC	??_C@_0P@KGCNBMEA@CreateAnaglyph?$AA@		; `string'
PUBLIC	??_C@_0M@JIFPIELG@WorldMatrix?$AA@		; `string'
PUBLIC	??_C@_0L@BCBAMPKD@ViewMatrix?$AA@		; `string'
PUBLIC	??_C@_0L@FHHLNBJL@ProjMatrix?$AA@		; `string'
PUBLIC	??_C@_0P@CGMJCCAP@ViewProjMatrix?$AA@		; `string'
PUBLIC	??_C@_0L@ILIGHKAJ@DiffuseMap?$AA@		; `string'
PUBLIC	??_C@_08BOJBOHIN@LeftView?$AA@			; `string'
PUBLIC	??_C@_09HMIPHGOM@RightView?$AA@			; `string'
PUBLIC	??_C@_09NOKMDDFI@CameraPos?$AA@			; `string'
PUBLIC	??_C@_09IKCCJLBD@Light1Pos?$AA@			; `string'
PUBLIC	??_C@_0N@MBEFNPAM@Light1Colour?$AA@		; `string'
PUBLIC	??_C@_09MNICOBMD@Light2Pos?$AA@			; `string'
PUBLIC	??_C@_0N@EPMKNIOP@Light2Colour?$AA@		; `string'
PUBLIC	??_C@_0O@CDFNGEGA@AmbientColour?$AA@		; `string'
PUBLIC	??_C@_0O@MJINMAGB@SpecularPower?$AA@		; `string'
PUBLIC	??_C@_0L@DBKDBEOO@TintColour?$AA@		; `string'
PUBLIC	??_C@_06HGKAGIBP@Cube?4x?$AA@			; `string'
PUBLIC	??_C@_07LFFGNILN@Stars?4x?$AA@			; `string'
PUBLIC	??_C@_0BB@FCFMADHI@CargoContainer?4x?$AA@	; `string'
PUBLIC	??_C@_07PBMADCPD@Hills?4x?$AA@			; `string'
PUBLIC	??_C@_07HHBKFCLD@Light?4x?$AA@			; `string'
PUBLIC	??_C@_1DC@LOBNDLGH@?$AAS?$AAt?$AAo?$AAn?$AAe?$AAD?$AAi?$AAf?$AAf?$AAu?$AAs?$AAe?$AAS?$AAp?$AAe?$AAc?$AAu?$AAl?$AAa?$AAr?$AA?4?$AAd?$AAd?$AAs?$AA?$AA@ ; `string'
PUBLIC	??_C@_1BG@HINCJOKG@?$AAC?$AAa?$AAr?$AAg?$AAo?$AAA?$AA?4?$AAd?$AAd?$AAs?$AA?$AA@ ; `string'
PUBLIC	??_C@_1BI@OABGLAHE@?$AAS?$AAt?$AAa?$AAr?$AAs?$AAH?$AAi?$AA?4?$AAj?$AAp?$AAg?$AA?$AA@ ; `string'
PUBLIC	??_C@_1BG@CLCNHLOG@?$AAt?$AAi?$AAl?$AAe?$AAs?$AA1?$AA?4?$AAj?$AAp?$AAg?$AA?$AA@ ; `string'
PUBLIC	??_C@_1BE@DBIKIFGN@?$AAf?$AAl?$AAa?$AAr?$AAe?$AA?4?$AAj?$AAp?$AAg?$AA?$AA@ ; `string'
PUBLIC	??_C@_1CI@OKMLABGO@?$AAT?$AAu?$AAt?$AAo?$AAr?$AAi?$AAa?$AAl?$AAW?$AAi?$AAn?$AAd?$AAo?$AAw?$AAC?$AAl?$AAa?$AAs?$AAs?$AA?$AA@ ; `string'
PUBLIC	??_C@_1EI@MGPDNLAL@?$AAD?$AAi?$AAr?$AAe?$AAc?$AAt?$AA3?$AAD?$AA?5?$AA1?$AA0?$AA?3?$AA?5?$AAS?$AAt?$AAe?$AAr?$AAe?$AAo?$AAs?$AAc?$AAo?$AAp?$AAi?$AAc?$AA?5?$AAR?$AAe?$AAn?$AAd?$AAe?$AAr@ ; `string'
PUBLIC	??_C@_1IO@BLKJFPEG@?$AAc?$AA?3?$AA?2?$AAp?$AAr?$AAo?$AAg?$AAr?$AAa?$AAm?$AA?5?$AAf?$AAi?$AAl?$AAe?$AAs?$AA?5?$AA?$CI?$AAx?$AA8?$AA6?$AA?$CJ?$AA?2?$AAm?$AAi?$AAc?$AAr?$AAo?$AAs?$AAo?$AAf?$AAt@ ; `string'
PUBLIC	?id@?$numpunct@D@std@@2V0locale@2@A		; std::numpunct<char>::id
PUBLIC	?id@?$numpunct@_W@std@@2V0locale@2@A		; std::numpunct<wchar_t>::id
PUBLIC	??_C@_0BI@CFPLBAOH@invalid?5string?5position?$AA@ ; `string'
PUBLIC	??_C@_0BA@JFNIOLAK@string?5too?5long?$AA@	; `string'
PUBLIC	??_C@_1CK@EOPGIILJ@?$AAi?$AAn?$AAv?$AAa?$AAl?$AAi?$AAd?$AA?5?$AAn?$AAu?$AAl?$AAl?$AA?5?$AAp?$AAo?$AAi?$AAn?$AAt?$AAe?$AAr?$AA?$AA@ ; `string'
PUBLIC	??_R4error_category@std@@6B@			; std::error_category::`RTTI Complete Object Locator'
PUBLIC	??_R0?AVerror_category@std@@@8			; std::error_category `RTTI Type Descriptor'
PUBLIC	??_R3error_category@std@@8			; std::error_category::`RTTI Class Hierarchy Descriptor'
PUBLIC	??_R2error_category@std@@8			; std::error_category::`RTTI Base Class Array'
PUBLIC	??_R1A@?0A@EA@error_category@std@@8		; std::error_category::`RTTI Base Class Descriptor at (0,-1,0,64)'
PUBLIC	??_R4_Generic_error_category@std@@6B@		; std::_Generic_error_category::`RTTI Complete Object Locator'
PUBLIC	??_R0?AV_Generic_error_category@std@@@8		; std::_Generic_error_category `RTTI Type Descriptor'
PUBLIC	??_R3_Generic_error_category@std@@8		; std::_Generic_error_category::`RTTI Class Hierarchy Descriptor'
PUBLIC	??_R2_Generic_error_category@std@@8		; std::_Generic_error_category::`RTTI Base Class Array'
PUBLIC	??_R1A@?0A@EA@_Generic_error_category@std@@8	; std::_Generic_error_category::`RTTI Base Class Descriptor at (0,-1,0,64)'
PUBLIC	??_R4_Iostream_error_category@std@@6B@		; std::_Iostream_error_category::`RTTI Complete Object Locator'
PUBLIC	??_R0?AV_Iostream_error_category@std@@@8	; std::_Iostream_error_category `RTTI Type Descriptor'
PUBLIC	??_R3_Iostream_error_category@std@@8		; std::_Iostream_error_category::`RTTI Class Hierarchy Descriptor'
PUBLIC	??_R2_Iostream_error_category@std@@8		; std::_Iostream_error_category::`RTTI Base Class Array'
PUBLIC	??_R1A@?0A@EA@_Iostream_error_category@std@@8	; std::_Iostream_error_category::`RTTI Base Class Descriptor at (0,-1,0,64)'
PUBLIC	??_R4_System_error_category@std@@6B@		; std::_System_error_category::`RTTI Complete Object Locator'
PUBLIC	??_R0?AV_System_error_category@std@@@8		; std::_System_error_category `RTTI Type Descriptor'
PUBLIC	??_R3_System_error_category@std@@8		; std::_System_error_category::`RTTI Class Hierarchy Descriptor'
PUBLIC	??_R2_System_error_category@std@@8		; std::_System_error_category::`RTTI Base Class Array'
PUBLIC	??_R1A@?0A@EA@_System_error_category@std@@8	; std::_System_error_category::`RTTI Base Class Descriptor at (0,-1,0,64)'
PUBLIC	__real@00000000
PUBLIC	__real@3e4ccccd
PUBLIC	__real@3e99999a
PUBLIC	__real@3ecccccd
PUBLIC	__real@3f000000
PUBLIC	__real@3f19999a
PUBLIC	__real@3f490fdb
PUBLIC	__real@3f4ccccd
PUBLIC	__real@3f800000
PUBLIC	__real@40490fdb
PUBLIC	__real@40800000
PUBLIC	__real@40c00000
PUBLIC	__real@41000000
PUBLIC	__real@41200000
PUBLIC	__real@41700000
PUBLIC	__real@41900000
PUBLIC	__real@41a00000
PUBLIC	__real@41f00000
PUBLIC	__real@420c0000
PUBLIC	__real@42200000
PUBLIC	__real@42480000
PUBLIC	__real@42b40000
PUBLIC	__real@43340000
PUBLIC	__real@461c4000
PUBLIC	__real@47435000
PUBLIC	__real@c1200000
PUBLIC	__real@c1700000
PUBLIC	__real@c1a00000
PUBLIC	__real@c28c0000
EXTRN	__purecall:PROC
EXTRN	??2@YAPAXI@Z:PROC				; operator new
EXTRN	??3@YAXPAX@Z:PROC				; operator delete
EXTRN	_atexit:PROC
EXTRN	_memcpy:PROC
EXTRN	_memset:PROC
EXTRN	_strlen:PROC
EXTRN	_memmove:PROC
EXTRN	__imp__GetLastError@0:PROC
EXTRN	__imp__InitializeCriticalSectionAndSpinCount@8:PROC
EXTRN	__imp__TranslateMessage@4:PROC
EXTRN	__imp__DispatchMessageW@4:PROC
EXTRN	__imp__PeekMessageW@20:PROC
EXTRN	__imp__DefWindowProcW@16:PROC
EXTRN	__imp__PostQuitMessage@4:PROC
EXTRN	__imp__RegisterClassExW@4:PROC
EXTRN	__imp__CreateWindowExW@48:PROC
EXTRN	__imp__DestroyWindow@4:PROC
EXTRN	__imp__ShowWindow@8:PROC
EXTRN	__imp__BeginPaint@8:PROC
EXTRN	__imp__EndPaint@8:PROC
EXTRN	__imp__GetClientRect@8:PROC
EXTRN	__imp__AdjustWindowRect@12:PROC
EXTRN	__imp__MessageBoxW@16:PROC
EXTRN	__imp__LoadCursorW@8:PROC
EXTRN	__imp__LoadIconW@8:PROC
EXTRN	__imp__MultiByteToWideChar@24:PROC
EXTRN	_calloc:PROC
EXTRN	_free:PROC
EXTRN	__recalloc:PROC
EXTRN	_D3D10CreateDeviceAndSwapChain@32:PROC
EXTRN	_cos:PROC
EXTRN	_sin:PROC
EXTRN	_D3DX10CreateShaderResourceViewFromFileW@24:PROC
EXTRN	_D3DX10CreateEffectFromFileW@48:PROC
EXTRN	__CrtDbgReportW:PROC
EXTRN	_AtlTraceVU:PROC
EXTRN	??0_Lockit@std@@QAE@H@Z:PROC			; std::_Lockit::_Lockit
EXTRN	??1_Lockit@std@@QAE@XZ:PROC			; std::_Lockit::~_Lockit
EXTRN	?_Debug_message@std@@YAXPB_W0I@Z:PROC		; std::_Debug_message
EXTRN	?_Xbad_alloc@std@@YAXXZ:PROC			; std::_Xbad_alloc
EXTRN	?_Xlength_error@std@@YAXPBD@Z:PROC		; std::_Xlength_error
EXTRN	?_Xout_of_range@std@@YAXPBD@Z:PROC		; std::_Xout_of_range
EXTRN	??_Eerror_category@std@@UAEPAXI@Z:PROC		; std::error_category::`vector deleting destructor'
EXTRN	?_Syserror_map@std@@YAPBDH@Z:PROC		; std::_Syserror_map
EXTRN	?_Winerror_map@std@@YAPBDH@Z:PROC		; std::_Winerror_map
EXTRN	??_E_Generic_error_category@std@@UAEPAXI@Z:PROC	; std::_Generic_error_category::`vector deleting destructor'
EXTRN	??_E_Iostream_error_category@std@@UAEPAXI@Z:PROC ; std::_Iostream_error_category::`vector deleting destructor'
EXTRN	??_E_System_error_category@std@@UAEPAXI@Z:PROC	; std::_System_error_category::`vector deleting destructor'
EXTRN	?InitInput@@YAXXZ:PROC				; InitInput
EXTRN	?KeyDownEvent@@YAXW4EKeyState@@@Z:PROC		; KeyDownEvent
EXTRN	?KeyUpEvent@@YAXW4EKeyState@@@Z:PROC		; KeyUpEvent
EXTRN	?KeyHit@@YA_NW4EKeyCode@@@Z:PROC		; KeyHit
EXTRN	?KeyHeld@@YA_NW4EKeyCode@@@Z:PROC		; KeyHeld
EXTRN	??0CModel@@QAE@UD3DXVECTOR3@@0M@Z:PROC		; CModel::CModel
EXTRN	??1CModel@@QAE@XZ:PROC				; CModel::~CModel
EXTRN	?Load@CModel@@QAE_NABV?$basic_string@DU?$char_traits@D@std@@V?$allocator@D@2@@std@@PAUID3D10EffectTechnique@@_N@Z:PROC ; CModel::Load
EXTRN	?UpdateMatrix@CModel@@QAEXXZ:PROC		; CModel::UpdateMatrix
EXTRN	?Control@CModel@@QAEXMW4EKeyCode@@0000000@Z:PROC ; CModel::Control
EXTRN	?Render@CModel@@QAEXPAUID3D10EffectTechnique@@@Z:PROC ; CModel::Render
EXTRN	??0CCamera@@QAE@UD3DXVECTOR3@@0MMM@Z:PROC	; CCamera::CCamera
EXTRN	?GetPosition@CCamera@@QAE?AUD3DXVECTOR3@@W4EStereoscopic@@M@Z:PROC ; CCamera::GetPosition
EXTRN	?GetViewMatrix@CCamera@@QAE?AU_D3DXMATRIXA16@@W4EStereoscopic@@M@Z:PROC ; CCamera::GetViewMatrix
EXTRN	?GetProjectionMatrix@CCamera@@QAE?AU_D3DXMATRIXA16@@W4EStereoscopic@@MM@Z:PROC ; CCamera::GetProjectionMatrix
EXTRN	?UpdateMatrices@CCamera@@QAEXXZ:PROC		; CCamera::UpdateMatrices
EXTRN	?Control@CCamera@@QAEXMW4EKeyCode@@0000000@Z:PROC ; CCamera::Control
EXTRN	??0CTimer@@QAE@XZ:PROC				; CTimer::CTimer
EXTRN	?Start@CTimer@@QAEXXZ:PROC			; CTimer::Start
EXTRN	?GetLapTime@CTimer@@QAEMXZ:PROC			; CTimer::GetLapTime
EXTRN	@_RTC_CheckStackVars@8:PROC
EXTRN	@__security_check_cookie@4:PROC
EXTRN	__CxxThrowException@8:PROC
EXTRN	__RTC_CheckEsp:PROC
EXTRN	__RTC_InitBase:PROC
EXTRN	__RTC_Shutdown:PROC
EXTRN	___CxxFrameHandler3:PROC
EXTRN	?s_trace@CTrace@ATL@@2V12@A:QWORD		; ATL::CTrace::s_trace
EXTRN	?atlTraceException@ATL@@3VCTraceCategory@1@A:DWORD ; ATL::atlTraceException
EXTRN	??_7type_info@@6B@:QWORD			; type_info::`vftable'
EXTRN	___security_cookie:DWORD
EXTRN	__fltused:DWORD
_BSS	SEGMENT
_piecewise_construct DB 01H DUP (?)
	ALIGN	4

_allocator_arg DB 01H DUP (?)
_BSS	ENDS
;	COMDAT ?_Generic_object@?$_Error_objects@H@std@@2V_Generic_error_category@2@A
_BSS	SEGMENT
?_Generic_object@?$_Error_objects@H@std@@2V_Generic_error_category@2@A DD 01H DUP (?) ; std::_Error_objects<int>::_Generic_object
_BSS	ENDS
;	COMDAT ?_Iostream_object@?$_Error_objects@H@std@@2V_Iostream_error_category@2@A
_BSS	SEGMENT
?_Iostream_object@?$_Error_objects@H@std@@2V_Iostream_error_category@2@A DD 01H DUP (?) ; std::_Error_objects<int>::_Iostream_object
_BSS	ENDS
;	COMDAT ?_System_object@?$_Error_objects@H@std@@2V_System_error_category@2@A
_BSS	SEGMENT
?_System_object@?$_Error_objects@H@std@@2V_System_error_category@2@A DD 01H DUP (?) ; std::_Error_objects<int>::_System_object
_BSS	ENDS
;	COMDAT ?id@?$num_put@DV?$back_insert_iterator@V?$basic_string@DU?$char_traits@D@std@@V?$allocator@D@2@@std@@@std@@@std@@2V0locale@2@A
_BSS	SEGMENT
?id@?$num_put@DV?$back_insert_iterator@V?$basic_string@DU?$char_traits@D@std@@V?$allocator@D@2@@std@@@std@@@std@@2V0locale@2@A DD 01H DUP (?) ; std::num_put<char,std::back_insert_iterator<std::basic_string<char,std::char_traits<char>,std::allocator<char> > > >::id
_BSS	ENDS
;	COMDAT ?id@?$num_put@_WV?$back_insert_iterator@V?$basic_string@_WU?$char_traits@_W@std@@V?$allocator@_W@2@@std@@@std@@@std@@2V0locale@2@A
_BSS	SEGMENT
?id@?$num_put@_WV?$back_insert_iterator@V?$basic_string@_WU?$char_traits@_W@std@@V?$allocator@_W@2@@std@@@std@@@std@@2V0locale@2@A DD 01H DUP (?) ; std::num_put<wchar_t,std::back_insert_iterator<std::basic_string<wchar_t,std::char_traits<wchar_t>,std::allocator<wchar_t> > > >::id
_BSS	ENDS
_BSS	SEGMENT
	ALIGN	4

?BackgroundColour@@3UD3DXVECTOR4@@A DB 010H DUP (?)	; BackgroundColour
?AmbientColour@@3UD3DXVECTOR3@@A DB 0cH DUP (?)		; AmbientColour
?Light1Colour@@3UD3DXVECTOR3@@A DB 0cH DUP (?)		; Light1Colour
?Light2Colour@@3UD3DXVECTOR3@@A DB 0cH DUP (?)		; Light2Colour
_BSS	ENDS
;	COMDAT ?id@?$numpunct@D@std@@2V0locale@2@A
_BSS	SEGMENT
?id@?$numpunct@D@std@@2V0locale@2@A DD 01H DUP (?)	; std::numpunct<char>::id
_BSS	ENDS
;	COMDAT ?id@?$numpunct@_W@std@@2V0locale@2@A
_BSS	SEGMENT
?id@?$numpunct@_W@std@@2V0locale@2@A DD 01H DUP (?)	; std::numpunct<wchar_t>::id
_BSS	ENDS
CRT$XCU	SEGMENT
_piecewise_construct$initializer$ DD FLAT:??__Epiecewise_construct@std@@YAXXZ
CRT$XCU	ENDS
;	COMDAT __real@c28c0000
CONST	SEGMENT
__real@c28c0000 DD 0c28c0000r			; -70
CONST	ENDS
;	COMDAT __real@c1a00000
CONST	SEGMENT
__real@c1a00000 DD 0c1a00000r			; -20
CONST	ENDS
;	COMDAT __real@c1700000
CONST	SEGMENT
__real@c1700000 DD 0c1700000r			; -15
CONST	ENDS
;	COMDAT __real@c1200000
CONST	SEGMENT
__real@c1200000 DD 0c1200000r			; -10
CONST	ENDS
;	COMDAT __real@47435000
CONST	SEGMENT
__real@47435000 DD 047435000r			; 50000
CONST	ENDS
;	COMDAT __real@461c4000
CONST	SEGMENT
__real@461c4000 DD 0461c4000r			; 10000
CONST	ENDS
;	COMDAT __real@43340000
CONST	SEGMENT
__real@43340000 DD 043340000r			; 180
CONST	ENDS
;	COMDAT __real@42b40000
CONST	SEGMENT
__real@42b40000 DD 042b40000r			; 90
CONST	ENDS
;	COMDAT __real@42480000
CONST	SEGMENT
__real@42480000 DD 042480000r			; 50
CONST	ENDS
;	COMDAT __real@42200000
CONST	SEGMENT
__real@42200000 DD 042200000r			; 40
CONST	ENDS
;	COMDAT __real@420c0000
CONST	SEGMENT
__real@420c0000 DD 0420c0000r			; 35
CONST	ENDS
;	COMDAT __real@41f00000
CONST	SEGMENT
__real@41f00000 DD 041f00000r			; 30
CONST	ENDS
;	COMDAT __real@41a00000
CONST	SEGMENT
__real@41a00000 DD 041a00000r			; 20
CONST	ENDS
;	COMDAT __real@41900000
CONST	SEGMENT
__real@41900000 DD 041900000r			; 18
CONST	ENDS
;	COMDAT __real@41700000
CONST	SEGMENT
__real@41700000 DD 041700000r			; 15
CONST	ENDS
;	COMDAT __real@41200000
CONST	SEGMENT
__real@41200000 DD 041200000r			; 10
CONST	ENDS
;	COMDAT __real@41000000
CONST	SEGMENT
__real@41000000 DD 041000000r			; 8
CONST	ENDS
;	COMDAT __real@40c00000
CONST	SEGMENT
__real@40c00000 DD 040c00000r			; 6
CONST	ENDS
;	COMDAT __real@40800000
CONST	SEGMENT
__real@40800000 DD 040800000r			; 4
CONST	ENDS
;	COMDAT __real@40490fdb
CONST	SEGMENT
__real@40490fdb DD 040490fdbr			; 3.14159
CONST	ENDS
;	COMDAT __real@3f800000
CONST	SEGMENT
__real@3f800000 DD 03f800000r			; 1
CONST	ENDS
;	COMDAT __real@3f4ccccd
CONST	SEGMENT
__real@3f4ccccd DD 03f4ccccdr			; 0.8
CONST	ENDS
;	COMDAT __real@3f490fdb
CONST	SEGMENT
__real@3f490fdb DD 03f490fdbr			; 0.785398
CONST	ENDS
;	COMDAT __real@3f19999a
CONST	SEGMENT
__real@3f19999a DD 03f19999ar			; 0.6
CONST	ENDS
;	COMDAT __real@3f000000
CONST	SEGMENT
__real@3f000000 DD 03f000000r			; 0.5
CONST	ENDS
;	COMDAT __real@3ecccccd
CONST	SEGMENT
__real@3ecccccd DD 03ecccccdr			; 0.4
CONST	ENDS
;	COMDAT __real@3e99999a
CONST	SEGMENT
__real@3e99999a DD 03e99999ar			; 0.3
CONST	ENDS
;	COMDAT __real@3e4ccccd
CONST	SEGMENT
__real@3e4ccccd DD 03e4ccccdr			; 0.2
CONST	ENDS
;	COMDAT __real@00000000
CONST	SEGMENT
__real@00000000 DD 000000000r			; 0
CONST	ENDS
;	COMDAT rtc$TMZ
rtc$TMZ	SEGMENT
__RTC_Shutdown.rtc$TMZ DD FLAT:__RTC_Shutdown
rtc$TMZ	ENDS
;	COMDAT rtc$IMZ
rtc$IMZ	SEGMENT
__RTC_InitBase.rtc$IMZ DD FLAT:__RTC_InitBase
rtc$IMZ	ENDS
;	COMDAT ??_R1A@?0A@EA@_System_error_category@std@@8
rdata$r	SEGMENT
??_R1A@?0A@EA@_System_error_category@std@@8 DD FLAT:??_R0?AV_System_error_category@std@@@8 ; std::_System_error_category::`RTTI Base Class Descriptor at (0,-1,0,64)'
	DD	02H
	DD	00H
	DD	0ffffffffH
	DD	00H
	DD	040H
	DD	FLAT:??_R3_System_error_category@std@@8
rdata$r	ENDS
;	COMDAT ??_R2_System_error_category@std@@8
rdata$r	SEGMENT
??_R2_System_error_category@std@@8 DD FLAT:??_R1A@?0A@EA@_System_error_category@std@@8 ; std::_System_error_category::`RTTI Base Class Array'
	DD	FLAT:??_R1A@?0A@EA@_Generic_error_category@std@@8
	DD	FLAT:??_R1A@?0A@EA@error_category@std@@8
rdata$r	ENDS
;	COMDAT ??_R3_System_error_category@std@@8
rdata$r	SEGMENT
??_R3_System_error_category@std@@8 DD 00H		; std::_System_error_category::`RTTI Class Hierarchy Descriptor'
	DD	00H
	DD	03H
	DD	FLAT:??_R2_System_error_category@std@@8
rdata$r	ENDS
;	COMDAT ??_R0?AV_System_error_category@std@@@8
_DATA	SEGMENT
??_R0?AV_System_error_category@std@@@8 DD FLAT:??_7type_info@@6B@ ; std::_System_error_category `RTTI Type Descriptor'
	DD	00H
	DB	'.?AV_System_error_category@std@@', 00H
_DATA	ENDS
;	COMDAT ??_R4_System_error_category@std@@6B@
rdata$r	SEGMENT
??_R4_System_error_category@std@@6B@ DD 00H		; std::_System_error_category::`RTTI Complete Object Locator'
	DD	00H
	DD	00H
	DD	FLAT:??_R0?AV_System_error_category@std@@@8
	DD	FLAT:??_R3_System_error_category@std@@8
rdata$r	ENDS
;	COMDAT ??_R1A@?0A@EA@_Iostream_error_category@std@@8
rdata$r	SEGMENT
??_R1A@?0A@EA@_Iostream_error_category@std@@8 DD FLAT:??_R0?AV_Iostream_error_category@std@@@8 ; std::_Iostream_error_category::`RTTI Base Class Descriptor at (0,-1,0,64)'
	DD	02H
	DD	00H
	DD	0ffffffffH
	DD	00H
	DD	040H
	DD	FLAT:??_R3_Iostream_error_category@std@@8
rdata$r	ENDS
;	COMDAT ??_R2_Iostream_error_category@std@@8
rdata$r	SEGMENT
??_R2_Iostream_error_category@std@@8 DD FLAT:??_R1A@?0A@EA@_Iostream_error_category@std@@8 ; std::_Iostream_error_category::`RTTI Base Class Array'
	DD	FLAT:??_R1A@?0A@EA@_Generic_error_category@std@@8
	DD	FLAT:??_R1A@?0A@EA@error_category@std@@8
rdata$r	ENDS
;	COMDAT ??_R3_Iostream_error_category@std@@8
rdata$r	SEGMENT
??_R3_Iostream_error_category@std@@8 DD 00H		; std::_Iostream_error_category::`RTTI Class Hierarchy Descriptor'
	DD	00H
	DD	03H
	DD	FLAT:??_R2_Iostream_error_category@std@@8
rdata$r	ENDS
;	COMDAT ??_R0?AV_Iostream_error_category@std@@@8
_DATA	SEGMENT
??_R0?AV_Iostream_error_category@std@@@8 DD FLAT:??_7type_info@@6B@ ; std::_Iostream_error_category `RTTI Type Descriptor'
	DD	00H
	DB	'.?AV_Iostream_error_category@std@@', 00H
_DATA	ENDS
;	COMDAT ??_R4_Iostream_error_category@std@@6B@
rdata$r	SEGMENT
??_R4_Iostream_error_category@std@@6B@ DD 00H		; std::_Iostream_error_category::`RTTI Complete Object Locator'
	DD	00H
	DD	00H
	DD	FLAT:??_R0?AV_Iostream_error_category@std@@@8
	DD	FLAT:??_R3_Iostream_error_category@std@@8
rdata$r	ENDS
;	COMDAT ??_R1A@?0A@EA@_Generic_error_category@std@@8
rdata$r	SEGMENT
??_R1A@?0A@EA@_Generic_error_category@std@@8 DD FLAT:??_R0?AV_Generic_error_category@std@@@8 ; std::_Generic_error_category::`RTTI Base Class Descriptor at (0,-1,0,64)'
	DD	01H
	DD	00H
	DD	0ffffffffH
	DD	00H
	DD	040H
	DD	FLAT:??_R3_Generic_error_category@std@@8
rdata$r	ENDS
;	COMDAT ??_R2_Generic_error_category@std@@8
rdata$r	SEGMENT
??_R2_Generic_error_category@std@@8 DD FLAT:??_R1A@?0A@EA@_Generic_error_category@std@@8 ; std::_Generic_error_category::`RTTI Base Class Array'
	DD	FLAT:??_R1A@?0A@EA@error_category@std@@8
rdata$r	ENDS
;	COMDAT ??_R3_Generic_error_category@std@@8
rdata$r	SEGMENT
??_R3_Generic_error_category@std@@8 DD 00H		; std::_Generic_error_category::`RTTI Class Hierarchy Descriptor'
	DD	00H
	DD	02H
	DD	FLAT:??_R2_Generic_error_category@std@@8
rdata$r	ENDS
;	COMDAT ??_R0?AV_Generic_error_category@std@@@8
_DATA	SEGMENT
??_R0?AV_Generic_error_category@std@@@8 DD FLAT:??_7type_info@@6B@ ; std::_Generic_error_category `RTTI Type Descriptor'
	DD	00H
	DB	'.?AV_Generic_error_category@std@@', 00H
_DATA	ENDS
;	COMDAT ??_R4_Generic_error_category@std@@6B@
rdata$r	SEGMENT
??_R4_Generic_error_category@std@@6B@ DD 00H		; std::_Generic_error_category::`RTTI Complete Object Locator'
	DD	00H
	DD	00H
	DD	FLAT:??_R0?AV_Generic_error_category@std@@@8
	DD	FLAT:??_R3_Generic_error_category@std@@8
rdata$r	ENDS
;	COMDAT ??_R1A@?0A@EA@error_category@std@@8
rdata$r	SEGMENT
??_R1A@?0A@EA@error_category@std@@8 DD FLAT:??_R0?AVerror_category@std@@@8 ; std::error_category::`RTTI Base Class Descriptor at (0,-1,0,64)'
	DD	00H
	DD	00H
	DD	0ffffffffH
	DD	00H
	DD	040H
	DD	FLAT:??_R3error_category@std@@8
rdata$r	ENDS
;	COMDAT ??_R2error_category@std@@8
rdata$r	SEGMENT
??_R2error_category@std@@8 DD FLAT:??_R1A@?0A@EA@error_category@std@@8 ; std::error_category::`RTTI Base Class Array'
rdata$r	ENDS
;	COMDAT ??_R3error_category@std@@8
rdata$r	SEGMENT
??_R3error_category@std@@8 DD 00H			; std::error_category::`RTTI Class Hierarchy Descriptor'
	DD	00H
	DD	01H
	DD	FLAT:??_R2error_category@std@@8
rdata$r	ENDS
;	COMDAT ??_R0?AVerror_category@std@@@8
_DATA	SEGMENT
??_R0?AVerror_category@std@@@8 DD FLAT:??_7type_info@@6B@ ; std::error_category `RTTI Type Descriptor'
	DD	00H
	DB	'.?AVerror_category@std@@', 00H
_DATA	ENDS
;	COMDAT ??_R4error_category@std@@6B@
rdata$r	SEGMENT
??_R4error_category@std@@6B@ DD 00H			; std::error_category::`RTTI Complete Object Locator'
	DD	00H
	DD	00H
	DD	FLAT:??_R0?AVerror_category@std@@@8
	DD	FLAT:??_R3error_category@std@@8
rdata$r	ENDS
;	COMDAT ??_C@_1CK@EOPGIILJ@?$AAi?$AAn?$AAv?$AAa?$AAl?$AAi?$AAd?$AA?5?$AAn?$AAu?$AAl?$AAl?$AA?5?$AAp?$AAo?$AAi?$AAn?$AAt?$AAe?$AAr?$AA?$AA@
CONST	SEGMENT
??_C@_1CK@EOPGIILJ@?$AAi?$AAn?$AAv?$AAa?$AAl?$AAi?$AAd?$AA?5?$AAn?$AAu?$AAl?$AAl?$AA?5?$AAp?$AAo?$AAi?$AAn?$AAt?$AAe?$AAr?$AA?$AA@ DB 'i'
	DB	00H, 'n', 00H, 'v', 00H, 'a', 00H, 'l', 00H, 'i', 00H, 'd', 00H
	DB	' ', 00H, 'n', 00H, 'u', 00H, 'l', 00H, 'l', 00H, ' ', 00H, 'p'
	DB	00H, 'o', 00H, 'i', 00H, 'n', 00H, 't', 00H, 'e', 00H, 'r', 00H
	DB	00H, 00H					; `string'
CONST	ENDS
;	COMDAT ??_C@_0BA@JFNIOLAK@string?5too?5long?$AA@
CONST	SEGMENT
??_C@_0BA@JFNIOLAK@string?5too?5long?$AA@ DB 'string too long', 00H ; `string'
CONST	ENDS
;	COMDAT ??_C@_0BI@CFPLBAOH@invalid?5string?5position?$AA@
CONST	SEGMENT
??_C@_0BI@CFPLBAOH@invalid?5string?5position?$AA@ DB 'invalid string posi'
	DB	'tion', 00H					; `string'
CONST	ENDS
;	COMDAT ??_C@_1IO@BLKJFPEG@?$AAc?$AA?3?$AA?2?$AAp?$AAr?$AAo?$AAg?$AAr?$AAa?$AAm?$AA?5?$AAf?$AAi?$AAl?$AAe?$AAs?$AA?5?$AA?$CI?$AAx?$AA8?$AA6?$AA?$CJ?$AA?2?$AAm?$AAi?$AAc?$AAr?$AAo?$AAs?$AAo?$AAf?$AAt@
CONST	SEGMENT
??_C@_1IO@BLKJFPEG@?$AAc?$AA?3?$AA?2?$AAp?$AAr?$AAo?$AAg?$AAr?$AAa?$AAm?$AA?5?$AAf?$AAi?$AAl?$AAe?$AAs?$AA?5?$AA?$CI?$AAx?$AA8?$AA6?$AA?$CJ?$AA?2?$AAm?$AAi?$AAc?$AAr?$AAo?$AAs?$AAo?$AAf?$AAt@ DB 'c'
	DB	00H, ':', 00H, '\', 00H, 'p', 00H, 'r', 00H, 'o', 00H, 'g', 00H
	DB	'r', 00H, 'a', 00H, 'm', 00H, ' ', 00H, 'f', 00H, 'i', 00H, 'l'
	DB	00H, 'e', 00H, 's', 00H, ' ', 00H, '(', 00H, 'x', 00H, '8', 00H
	DB	'6', 00H, ')', 00H, '\', 00H, 'm', 00H, 'i', 00H, 'c', 00H, 'r'
	DB	00H, 'o', 00H, 's', 00H, 'o', 00H, 'f', 00H, 't', 00H, ' ', 00H
	DB	'v', 00H, 'i', 00H, 's', 00H, 'u', 00H, 'a', 00H, 'l', 00H, ' '
	DB	00H, 's', 00H, 't', 00H, 'u', 00H, 'd', 00H, 'i', 00H, 'o', 00H
	DB	' ', 00H, '1', 00H, '1', 00H, '.', 00H, '0', 00H, '\', 00H, 'v'
	DB	00H, 'c', 00H, '\', 00H, 'i', 00H, 'n', 00H, 'c', 00H, 'l', 00H
	DB	'u', 00H, 'd', 00H, 'e', 00H, '\', 00H, 'x', 00H, 's', 00H, 't'
	DB	00H, 'r', 00H, 'i', 00H, 'n', 00H, 'g', 00H, 00H, 00H ; `string'
CONST	ENDS
;	COMDAT ??_C@_1EI@MGPDNLAL@?$AAD?$AAi?$AAr?$AAe?$AAc?$AAt?$AA3?$AAD?$AA?5?$AA1?$AA0?$AA?3?$AA?5?$AAS?$AAt?$AAe?$AAr?$AAe?$AAo?$AAs?$AAc?$AAo?$AAp?$AAi?$AAc?$AA?5?$AAR?$AAe?$AAn?$AAd?$AAe?$AAr@
CONST	SEGMENT
??_C@_1EI@MGPDNLAL@?$AAD?$AAi?$AAr?$AAe?$AAc?$AAt?$AA3?$AAD?$AA?5?$AA1?$AA0?$AA?3?$AA?5?$AAS?$AAt?$AAe?$AAr?$AAe?$AAo?$AAs?$AAc?$AAo?$AAp?$AAi?$AAc?$AA?5?$AAR?$AAe?$AAn?$AAd?$AAe?$AAr@ DB 'D'
	DB	00H, 'i', 00H, 'r', 00H, 'e', 00H, 'c', 00H, 't', 00H, '3', 00H
	DB	'D', 00H, ' ', 00H, '1', 00H, '0', 00H, ':', 00H, ' ', 00H, 'S'
	DB	00H, 't', 00H, 'e', 00H, 'r', 00H, 'e', 00H, 'o', 00H, 's', 00H
	DB	'c', 00H, 'o', 00H, 'p', 00H, 'i', 00H, 'c', 00H, ' ', 00H, 'R'
	DB	00H, 'e', 00H, 'n', 00H, 'd', 00H, 'e', 00H, 'r', 00H, 'i', 00H
	DB	'n', 00H, 'g', 00H, 00H, 00H			; `string'
CONST	ENDS
;	COMDAT ??_C@_1CI@OKMLABGO@?$AAT?$AAu?$AAt?$AAo?$AAr?$AAi?$AAa?$AAl?$AAW?$AAi?$AAn?$AAd?$AAo?$AAw?$AAC?$AAl?$AAa?$AAs?$AAs?$AA?$AA@
CONST	SEGMENT
??_C@_1CI@OKMLABGO@?$AAT?$AAu?$AAt?$AAo?$AAr?$AAi?$AAa?$AAl?$AAW?$AAi?$AAn?$AAd?$AAo?$AAw?$AAC?$AAl?$AAa?$AAs?$AAs?$AA?$AA@ DB 'T'
	DB	00H, 'u', 00H, 't', 00H, 'o', 00H, 'r', 00H, 'i', 00H, 'a', 00H
	DB	'l', 00H, 'W', 00H, 'i', 00H, 'n', 00H, 'd', 00H, 'o', 00H, 'w'
	DB	00H, 'C', 00H, 'l', 00H, 'a', 00H, 's', 00H, 's', 00H, 00H, 00H ; `string'
CONST	ENDS
;	COMDAT ??_C@_1BE@DBIKIFGN@?$AAf?$AAl?$AAa?$AAr?$AAe?$AA?4?$AAj?$AAp?$AAg?$AA?$AA@
CONST	SEGMENT
??_C@_1BE@DBIKIFGN@?$AAf?$AAl?$AAa?$AAr?$AAe?$AA?4?$AAj?$AAp?$AAg?$AA?$AA@ DB 'f'
	DB	00H, 'l', 00H, 'a', 00H, 'r', 00H, 'e', 00H, '.', 00H, 'j', 00H
	DB	'p', 00H, 'g', 00H, 00H, 00H			; `string'
CONST	ENDS
;	COMDAT ??_C@_1BG@CLCNHLOG@?$AAt?$AAi?$AAl?$AAe?$AAs?$AA1?$AA?4?$AAj?$AAp?$AAg?$AA?$AA@
CONST	SEGMENT
??_C@_1BG@CLCNHLOG@?$AAt?$AAi?$AAl?$AAe?$AAs?$AA1?$AA?4?$AAj?$AAp?$AAg?$AA?$AA@ DB 't'
	DB	00H, 'i', 00H, 'l', 00H, 'e', 00H, 's', 00H, '1', 00H, '.', 00H
	DB	'j', 00H, 'p', 00H, 'g', 00H, 00H, 00H	; `string'
CONST	ENDS
;	COMDAT ??_C@_1BI@OABGLAHE@?$AAS?$AAt?$AAa?$AAr?$AAs?$AAH?$AAi?$AA?4?$AAj?$AAp?$AAg?$AA?$AA@
CONST	SEGMENT
??_C@_1BI@OABGLAHE@?$AAS?$AAt?$AAa?$AAr?$AAs?$AAH?$AAi?$AA?4?$AAj?$AAp?$AAg?$AA?$AA@ DB 'S'
	DB	00H, 't', 00H, 'a', 00H, 'r', 00H, 's', 00H, 'H', 00H, 'i', 00H
	DB	'.', 00H, 'j', 00H, 'p', 00H, 'g', 00H, 00H, 00H ; `string'
CONST	ENDS
;	COMDAT ??_C@_1BG@HINCJOKG@?$AAC?$AAa?$AAr?$AAg?$AAo?$AAA?$AA?4?$AAd?$AAd?$AAs?$AA?$AA@
CONST	SEGMENT
??_C@_1BG@HINCJOKG@?$AAC?$AAa?$AAr?$AAg?$AAo?$AAA?$AA?4?$AAd?$AAd?$AAs?$AA?$AA@ DB 'C'
	DB	00H, 'a', 00H, 'r', 00H, 'g', 00H, 'o', 00H, 'A', 00H, '.', 00H
	DB	'd', 00H, 'd', 00H, 's', 00H, 00H, 00H	; `string'
CONST	ENDS
;	COMDAT ??_C@_1DC@LOBNDLGH@?$AAS?$AAt?$AAo?$AAn?$AAe?$AAD?$AAi?$AAf?$AAf?$AAu?$AAs?$AAe?$AAS?$AAp?$AAe?$AAc?$AAu?$AAl?$AAa?$AAr?$AA?4?$AAd?$AAd?$AAs?$AA?$AA@
CONST	SEGMENT
??_C@_1DC@LOBNDLGH@?$AAS?$AAt?$AAo?$AAn?$AAe?$AAD?$AAi?$AAf?$AAf?$AAu?$AAs?$AAe?$AAS?$AAp?$AAe?$AAc?$AAu?$AAl?$AAa?$AAr?$AA?4?$AAd?$AAd?$AAs?$AA?$AA@ DB 'S'
	DB	00H, 't', 00H, 'o', 00H, 'n', 00H, 'e', 00H, 'D', 00H, 'i', 00H
	DB	'f', 00H, 'f', 00H, 'u', 00H, 's', 00H, 'e', 00H, 'S', 00H, 'p'
	DB	00H, 'e', 00H, 'c', 00H, 'u', 00H, 'l', 00H, 'a', 00H, 'r', 00H
	DB	'.', 00H, 'd', 00H, 'd', 00H, 's', 00H, 00H, 00H ; `string'
CONST	ENDS
;	COMDAT ??_C@_07HHBKFCLD@Light?4x?$AA@
CONST	SEGMENT
??_C@_07HHBKFCLD@Light?4x?$AA@ DB 'Light.x', 00H	; `string'
CONST	ENDS
;	COMDAT ??_C@_07PBMADCPD@Hills?4x?$AA@
CONST	SEGMENT
??_C@_07PBMADCPD@Hills?4x?$AA@ DB 'Hills.x', 00H	; `string'
CONST	ENDS
;	COMDAT ??_C@_0BB@FCFMADHI@CargoContainer?4x?$AA@
CONST	SEGMENT
??_C@_0BB@FCFMADHI@CargoContainer?4x?$AA@ DB 'CargoContainer.x', 00H ; `string'
CONST	ENDS
;	COMDAT ??_C@_07LFFGNILN@Stars?4x?$AA@
CONST	SEGMENT
??_C@_07LFFGNILN@Stars?4x?$AA@ DB 'Stars.x', 00H	; `string'
CONST	ENDS
;	COMDAT ??_C@_06HGKAGIBP@Cube?4x?$AA@
CONST	SEGMENT
??_C@_06HGKAGIBP@Cube?4x?$AA@ DB 'Cube.x', 00H		; `string'
CONST	ENDS
;	COMDAT ??_C@_0L@DBKDBEOO@TintColour?$AA@
CONST	SEGMENT
??_C@_0L@DBKDBEOO@TintColour?$AA@ DB 'TintColour', 00H	; `string'
CONST	ENDS
;	COMDAT ??_C@_0O@MJINMAGB@SpecularPower?$AA@
CONST	SEGMENT
??_C@_0O@MJINMAGB@SpecularPower?$AA@ DB 'SpecularPower', 00H ; `string'
CONST	ENDS
;	COMDAT ??_C@_0O@CDFNGEGA@AmbientColour?$AA@
CONST	SEGMENT
??_C@_0O@CDFNGEGA@AmbientColour?$AA@ DB 'AmbientColour', 00H ; `string'
CONST	ENDS
;	COMDAT ??_C@_0N@EPMKNIOP@Light2Colour?$AA@
CONST	SEGMENT
??_C@_0N@EPMKNIOP@Light2Colour?$AA@ DB 'Light2Colour', 00H ; `string'
CONST	ENDS
;	COMDAT ??_C@_09MNICOBMD@Light2Pos?$AA@
CONST	SEGMENT
??_C@_09MNICOBMD@Light2Pos?$AA@ DB 'Light2Pos', 00H	; `string'
CONST	ENDS
;	COMDAT ??_C@_0N@MBEFNPAM@Light1Colour?$AA@
CONST	SEGMENT
??_C@_0N@MBEFNPAM@Light1Colour?$AA@ DB 'Light1Colour', 00H ; `string'
CONST	ENDS
;	COMDAT ??_C@_09IKCCJLBD@Light1Pos?$AA@
CONST	SEGMENT
??_C@_09IKCCJLBD@Light1Pos?$AA@ DB 'Light1Pos', 00H	; `string'
CONST	ENDS
;	COMDAT ??_C@_09NOKMDDFI@CameraPos?$AA@
CONST	SEGMENT
??_C@_09NOKMDDFI@CameraPos?$AA@ DB 'CameraPos', 00H	; `string'
CONST	ENDS
;	COMDAT ??_C@_09HMIPHGOM@RightView?$AA@
CONST	SEGMENT
??_C@_09HMIPHGOM@RightView?$AA@ DB 'RightView', 00H	; `string'
CONST	ENDS
;	COMDAT ??_C@_08BOJBOHIN@LeftView?$AA@
CONST	SEGMENT
??_C@_08BOJBOHIN@LeftView?$AA@ DB 'LeftView', 00H	; `string'
CONST	ENDS
;	COMDAT ??_C@_0L@ILIGHKAJ@DiffuseMap?$AA@
CONST	SEGMENT
??_C@_0L@ILIGHKAJ@DiffuseMap?$AA@ DB 'DiffuseMap', 00H	; `string'
CONST	ENDS
;	COMDAT ??_C@_0P@CGMJCCAP@ViewProjMatrix?$AA@
CONST	SEGMENT
??_C@_0P@CGMJCCAP@ViewProjMatrix?$AA@ DB 'ViewProjMatrix', 00H ; `string'
CONST	ENDS
;	COMDAT ??_C@_0L@FHHLNBJL@ProjMatrix?$AA@
CONST	SEGMENT
??_C@_0L@FHHLNBJL@ProjMatrix?$AA@ DB 'ProjMatrix', 00H	; `string'
CONST	ENDS
;	COMDAT ??_C@_0L@BCBAMPKD@ViewMatrix?$AA@
CONST	SEGMENT
??_C@_0L@BCBAMPKD@ViewMatrix?$AA@ DB 'ViewMatrix', 00H	; `string'
CONST	ENDS
;	COMDAT ??_C@_0M@JIFPIELG@WorldMatrix?$AA@
CONST	SEGMENT
??_C@_0M@JIFPIELG@WorldMatrix?$AA@ DB 'WorldMatrix', 00H ; `string'
CONST	ENDS
;	COMDAT ??_C@_0P@KGCNBMEA@CreateAnaglyph?$AA@
CONST	SEGMENT
??_C@_0P@KGCNBMEA@CreateAnaglyph?$AA@ DB 'CreateAnaglyph', 00H ; `string'
CONST	ENDS
;	COMDAT ??_C@_0BA@MLEFJKEP@AdditiveTexTint?$AA@
CONST	SEGMENT
??_C@_0BA@MLEFJKEP@AdditiveTexTint?$AA@ DB 'AdditiveTexTint', 00H ; `string'
CONST	ENDS
;	COMDAT ??_C@_0N@JECPKPIH@VertexLitTex?$AA@
CONST	SEGMENT
??_C@_0N@JECPKPIH@VertexLitTex?$AA@ DB 'VertexLitTex', 00H ; `string'
CONST	ENDS
;	COMDAT ??_C@_1KK@KKJBPFMN@?$AAE?$AAr?$AAr?$AAo?$AAr?$AA?5?$AAl?$AAo?$AAa?$AAd?$AAi?$AAn?$AAg?$AA?5?$AAF?$AAX?$AA?5?$AAf?$AAi?$AAl?$AAe?$AA?4?$AA?5?$AAE?$AAn?$AAs?$AAu?$AAr?$AAe?$AA?5?$AAy?$AAo@
CONST	SEGMENT
??_C@_1KK@KKJBPFMN@?$AAE?$AAr?$AAr?$AAo?$AAr?$AA?5?$AAl?$AAo?$AAa?$AAd?$AAi?$AAn?$AAg?$AA?5?$AAF?$AAX?$AA?5?$AAf?$AAi?$AAl?$AAe?$AA?4?$AA?5?$AAE?$AAn?$AAs?$AAu?$AAr?$AAe?$AA?5?$AAy?$AAo@ DB 'E'
	DB	00H, 'r', 00H, 'r', 00H, 'o', 00H, 'r', 00H, ' ', 00H, 'l', 00H
	DB	'o', 00H, 'a', 00H, 'd', 00H, 'i', 00H, 'n', 00H, 'g', 00H, ' '
	DB	00H, 'F', 00H, 'X', 00H, ' ', 00H, 'f', 00H, 'i', 00H, 'l', 00H
	DB	'e', 00H, '.', 00H, ' ', 00H, 'E', 00H, 'n', 00H, 's', 00H, 'u'
	DB	00H, 'r', 00H, 'e', 00H, ' ', 00H, 'y', 00H, 'o', 00H, 'u', 00H
	DB	'r', 00H, ' ', 00H, 'F', 00H, 'X', 00H, ' ', 00H, 'f', 00H, 'i'
	DB	00H, 'l', 00H, 'e', 00H, ' ', 00H, 'i', 00H, 's', 00H, ' ', 00H
	DB	'i', 00H, 'n', 00H, ' ', 00H, 't', 00H, 'h', 00H, 'e', 00H, ' '
	DB	00H, 's', 00H, 'a', 00H, 'm', 00H, 'e', 00H, ' ', 00H, 'f', 00H
	DB	'o', 00H, 'l', 00H, 'd', 00H, 'e', 00H, 'r', 00H, ' ', 00H, 'a'
	DB	00H, 's', 00H, ' ', 00H, 't', 00H, 'h', 00H, 'i', 00H, 's', 00H
	DB	' ', 00H, 'e', 00H, 'x', 00H, 'e', 00H, 'c', 00H, 'u', 00H, 't'
	DB	00H, 'a', 00H, 'b', 00H, 'l', 00H, 'e', 00H, '.', 00H, 00H, 00H ; `string'
CONST	ENDS
;	COMDAT ??_C@_1M@ILHOPKA@?$AAE?$AAr?$AAr?$AAo?$AAr?$AA?$AA@
CONST	SEGMENT
??_C@_1M@ILHOPKA@?$AAE?$AAr?$AAr?$AAo?$AAr?$AA?$AA@ DB 'E', 00H, 'r', 00H
	DB	'r', 00H, 'o', 00H, 'r', 00H, 00H, 00H	; `string'
CONST	ENDS
;	COMDAT ??_C@_1CA@BKGEJCLC@?$AAS?$AAt?$AAe?$AAr?$AAe?$AAo?$AAs?$AAc?$AAo?$AAp?$AAi?$AAc?$AA?4?$AAf?$AAx?$AA?$AA@
CONST	SEGMENT
??_C@_1CA@BKGEJCLC@?$AAS?$AAt?$AAe?$AAr?$AAe?$AAo?$AAs?$AAc?$AAo?$AAp?$AAi?$AAc?$AA?4?$AAf?$AAx?$AA?$AA@ DB 'S'
	DB	00H, 't', 00H, 'e', 00H, 'r', 00H, 'e', 00H, 'o', 00H, 's', 00H
	DB	'c', 00H, 'o', 00H, 'p', 00H, 'i', 00H, 'c', 00H, '.', 00H, 'f'
	DB	00H, 'x', 00H, 00H, 00H			; `string'
CONST	ENDS
;	COMDAT ??_C@_06BACILOGA@fx_4_0?$AA@
CONST	SEGMENT
??_C@_06BACILOGA@fx_4_0?$AA@ DB 'fx_4_0', 00H		; `string'
CONST	ENDS
;	COMDAT ??_C@_06FHFOAHML@system?$AA@
CONST	SEGMENT
??_C@_06FHFOAHML@system?$AA@ DB 'system', 00H		; `string'
CONST	ENDS
;	COMDAT ??_7_System_error_category@std@@6B@
CONST	SEGMENT
??_7_System_error_category@std@@6B@ DD FLAT:??_R4_System_error_category@std@@6B@ ; std::_System_error_category::`vftable'
	DD	FLAT:??_E_System_error_category@std@@UAEPAXI@Z
	DD	FLAT:?name@_System_error_category@std@@UBEPBDXZ
	DD	FLAT:?message@_System_error_category@std@@UBE?AV?$basic_string@DU?$char_traits@D@std@@V?$allocator@D@2@@2@H@Z
	DD	FLAT:?default_error_condition@_System_error_category@std@@UBE?AVerror_condition@2@H@Z
	DD	FLAT:?equivalent@error_category@std@@UBE_NABVerror_code@2@H@Z
	DD	FLAT:?equivalent@error_category@std@@UBE_NHABVerror_condition@2@@Z
CONST	ENDS
;	COMDAT ??_C@_0BG@PADBLCHM@iostream?5stream?5error?$AA@
CONST	SEGMENT
??_C@_0BG@PADBLCHM@iostream?5stream?5error?$AA@ DB 'iostream stream error'
	DB	00H						; `string'
CONST	ENDS
;	COMDAT ??_C@_08LLGCOLLL@iostream?$AA@
CONST	SEGMENT
??_C@_08LLGCOLLL@iostream?$AA@ DB 'iostream', 00H	; `string'
CONST	ENDS
;	COMDAT ??_7_Iostream_error_category@std@@6B@
CONST	SEGMENT
??_7_Iostream_error_category@std@@6B@ DD FLAT:??_R4_Iostream_error_category@std@@6B@ ; std::_Iostream_error_category::`vftable'
	DD	FLAT:??_E_Iostream_error_category@std@@UAEPAXI@Z
	DD	FLAT:?name@_Iostream_error_category@std@@UBEPBDXZ
	DD	FLAT:?message@_Iostream_error_category@std@@UBE?AV?$basic_string@DU?$char_traits@D@std@@V?$allocator@D@2@@2@H@Z
	DD	FLAT:?default_error_condition@error_category@std@@UBE?AVerror_condition@2@H@Z
	DD	FLAT:?equivalent@error_category@std@@UBE_NABVerror_code@2@H@Z
	DD	FLAT:?equivalent@error_category@std@@UBE_NHABVerror_condition@2@@Z
CONST	ENDS
;	COMDAT ??_C@_0O@BFJCFAAK@unknown?5error?$AA@
CONST	SEGMENT
??_C@_0O@BFJCFAAK@unknown?5error?$AA@ DB 'unknown error', 00H ; `string'
CONST	ENDS
;	COMDAT ??_C@_07DCLBNMLN@generic?$AA@
CONST	SEGMENT
??_C@_07DCLBNMLN@generic?$AA@ DB 'generic', 00H		; `string'
CONST	ENDS
;	COMDAT ??_7_Generic_error_category@std@@6B@
CONST	SEGMENT
??_7_Generic_error_category@std@@6B@ DD FLAT:??_R4_Generic_error_category@std@@6B@ ; std::_Generic_error_category::`vftable'
	DD	FLAT:??_E_Generic_error_category@std@@UAEPAXI@Z
	DD	FLAT:?name@_Generic_error_category@std@@UBEPBDXZ
	DD	FLAT:?message@_Generic_error_category@std@@UBE?AV?$basic_string@DU?$char_traits@D@std@@V?$allocator@D@2@@2@H@Z
	DD	FLAT:?default_error_condition@error_category@std@@UBE?AVerror_condition@2@H@Z
	DD	FLAT:?equivalent@error_category@std@@UBE_NABVerror_code@2@H@Z
	DD	FLAT:?equivalent@error_category@std@@UBE_NHABVerror_condition@2@@Z
CONST	ENDS
;	COMDAT ??_7error_category@std@@6B@
CONST	SEGMENT
??_7error_category@std@@6B@ DD FLAT:??_R4error_category@std@@6B@ ; std::error_category::`vftable'
	DD	FLAT:??_Eerror_category@std@@UAEPAXI@Z
	DD	FLAT:__purecall
	DD	FLAT:__purecall
	DD	FLAT:?default_error_condition@error_category@std@@UBE?AVerror_condition@2@H@Z
	DD	FLAT:?equivalent@error_category@std@@UBE_NABVerror_code@2@H@Z
	DD	FLAT:?equivalent@error_category@std@@UBE_NHABVerror_condition@2@@Z
CONST	ENDS
;	COMDAT ??_C@_1BM@GBBOFEAE@?$AA_?$AA_?$AAa?$AAt?$AAl?$AA_?$AAc?$AAo?$AAn?$AAd?$AAV?$AAa?$AAl?$AA?$AA@
CONST	SEGMENT
??_C@_1BM@GBBOFEAE@?$AA_?$AA_?$AAa?$AAt?$AAl?$AA_?$AAc?$AAo?$AAn?$AAd?$AAV?$AAa?$AAl?$AA?$AA@ DB '_'
	DB	00H, '_', 00H, 'a', 00H, 't', 00H, 'l', 00H, '_', 00H, 'c', 00H
	DB	'o', 00H, 'n', 00H, 'd', 00H, 'V', 00H, 'a', 00H, 'l', 00H, 00H
	DB	00H						; `string'
CONST	ENDS
;	COMDAT __CT??_R0?AVCAtlException@ATL@@@84
xdata$x	SEGMENT
__CT??_R0?AVCAtlException@ATL@@@84 DD 00H
	DD	FLAT:??_R0?AVCAtlException@ATL@@@8
	DD	00H
	DD	0ffffffffH
	ORG $+4
	DD	04H
	DD	00H
xdata$x	ENDS
;	COMDAT ??_R0?AVCAtlException@ATL@@@8
_DATA	SEGMENT
??_R0?AVCAtlException@ATL@@@8 DD FLAT:??_7type_info@@6B@ ; ATL::CAtlException `RTTI Type Descriptor'
	DD	00H
	DB	'.?AVCAtlException@ATL@@', 00H
_DATA	ENDS
;	COMDAT __CTA1?AVCAtlException@ATL@@
xdata$x	SEGMENT
__CTA1?AVCAtlException@ATL@@ DD 01H
	DD	FLAT:__CT??_R0?AVCAtlException@ATL@@@84
xdata$x	ENDS
;	COMDAT __TI1?AVCAtlException@ATL@@
xdata$x	SEGMENT
__TI1?AVCAtlException@ATL@@ DD 00H
	DD	00H
	DD	00H
	DD	FLAT:__CTA1?AVCAtlException@ATL@@
xdata$x	ENDS
;	COMDAT ??_C@_1CK@DFMKPFAK@?$AAA?$AAt?$AAl?$AAT?$AAh?$AAr?$AAo?$AAw?$AA?3?$AA?5?$AAh?$AAr?$AA?5?$AA?$DN?$AA?5?$AA0?$AAx?$AA?$CF?$AAx?$AA?6?$AA?$AA@
CONST	SEGMENT
??_C@_1CK@DFMKPFAK@?$AAA?$AAt?$AAl?$AAT?$AAh?$AAr?$AAo?$AAw?$AA?3?$AA?5?$AAh?$AAr?$AA?5?$AA?$DN?$AA?5?$AA0?$AAx?$AA?$CF?$AAx?$AA?6?$AA?$AA@ DB 'A'
	DB	00H, 't', 00H, 'l', 00H, 'T', 00H, 'h', 00H, 'r', 00H, 'o', 00H
	DB	'w', 00H, ':', 00H, ' ', 00H, 'h', 00H, 'r', 00H, ' ', 00H, '='
	DB	00H, ' ', 00H, '0', 00H, 'x', 00H, '%', 00H, 'x', 00H, 0aH, 00H
	DB	00H, 00H					; `string'
CONST	ENDS
;	COMDAT ??_C@_0FC@IIOKBFPE@c?3?2program?5files?5?$CIx86?$CJ?2microsoft@
CONST	SEGMENT
??_C@_0FC@IIOKBFPE@c?3?2program?5files?5?$CIx86?$CJ?2microsoft@ DB 'c:\pr'
	DB	'ogram files (x86)\microsoft visual studio 11.0\vc\atlmfc\incl'
	DB	'ude\atlexcept.h', 00H			; `string'
CONST	ENDS
;	COMDAT ?__LINE__Var@?1??AtlThrowImpl@ATL@@YGXJ@Z@4JA
_DATA	SEGMENT
?__LINE__Var@?1??AtlThrowImpl@ATL@@YGXJ@Z@4JA DD 041H	; `ATL::AtlThrowImpl'::`2'::__LINE__Var
_DATA	ENDS
;	COMDAT ??_C@_1KA@FFOMAGAF@?$AAc?$AA?3?$AA?2?$AAp?$AAr?$AAo?$AAg?$AAr?$AAa?$AAm?$AA?5?$AAf?$AAi?$AAl?$AAe?$AAs?$AA?5?$AA?$CI?$AAx?$AA8?$AA6?$AA?$CJ?$AA?2?$AAm?$AAi?$AAc?$AAr?$AAo?$AAs?$AAo?$AAf?$AAt@
CONST	SEGMENT
??_C@_1KA@FFOMAGAF@?$AAc?$AA?3?$AA?2?$AAp?$AAr?$AAo?$AAg?$AAr?$AAa?$AAm?$AA?5?$AAf?$AAi?$AAl?$AAe?$AAs?$AA?5?$AA?$CI?$AAx?$AA8?$AA6?$AA?$CJ?$AA?2?$AAm?$AAi?$AAc?$AAr?$AAo?$AAs?$AAo?$AAf?$AAt@ DB 'c'
	DB	00H, ':', 00H, '\', 00H, 'p', 00H, 'r', 00H, 'o', 00H, 'g', 00H
	DB	'r', 00H, 'a', 00H, 'm', 00H, ' ', 00H, 'f', 00H, 'i', 00H, 'l'
	DB	00H, 'e', 00H, 's', 00H, ' ', 00H, '(', 00H, 'x', 00H, '8', 00H
	DB	'6', 00H, ')', 00H, '\', 00H, 'm', 00H, 'i', 00H, 'c', 00H, 'r'
	DB	00H, 'o', 00H, 's', 00H, 'o', 00H, 'f', 00H, 't', 00H, ' ', 00H
	DB	'v', 00H, 'i', 00H, 's', 00H, 'u', 00H, 'a', 00H, 'l', 00H, ' '
	DB	00H, 's', 00H, 't', 00H, 'u', 00H, 'd', 00H, 'i', 00H, 'o', 00H
	DB	' ', 00H, '1', 00H, '1', 00H, '.', 00H, '0', 00H, '\', 00H, 'v'
	DB	00H, 'c', 00H, '\', 00H, 'a', 00H, 't', 00H, 'l', 00H, 'm', 00H
	DB	'f', 00H, 'c', 00H, '\', 00H, 'i', 00H, 'n', 00H, 'c', 00H, 'l'
	DB	00H, 'u', 00H, 'd', 00H, 'e', 00H, '\', 00H, 'a', 00H, 't', 00H
	DB	'l', 00H, 'c', 00H, 'o', 00H, 'n', 00H, 'v', 00H, '.', 00H, 'h'
	DB	00H, 00H, 00H				; `string'
CONST	ENDS
;	COMDAT ??_C@_15GANGMFKL@?$AA?$CF?$AAs?$AA?$AA@
CONST	SEGMENT
??_C@_15GANGMFKL@?$AA?$CF?$AAs?$AA?$AA@ DB '%', 00H, 's', 00H, 00H, 00H ; `string'
CONST	ENDS
;	COMDAT xdata$x
xdata$x	SEGMENT
__unwindtable$??$construct@PADAAPAD@?$allocator@D@std@@QAEXPAPADAAPAD@Z DD 0ffffffffH
	DD	FLAT:__unwindfunclet$??$construct@PADAAPAD@?$allocator@D@std@@QAEXPAPADAAPAD@Z$0
__ehfuncinfo$??$construct@PADAAPAD@?$allocator@D@std@@QAEXPAPADAAPAD@Z DD 019930522H
	DD	01H
	DD	FLAT:__unwindtable$??$construct@PADAAPAD@?$allocator@D@std@@QAEXPAPADAAPAD@Z
	DD	2 DUP(00H)
	DD	2 DUP(00H)
	DD	00H
	DD	01H
xdata$x	ENDS
;	COMDAT xdata$x
xdata$x	SEGMENT
__unwindtable$??$construct@U_Container_proxy@std@@U12@@?$allocator@U_Container_proxy@std@@@std@@QAEXPAU_Container_proxy@1@$$QAU21@@Z DD 0ffffffffH
	DD	FLAT:__unwindfunclet$??$construct@U_Container_proxy@std@@U12@@?$allocator@U_Container_proxy@std@@@std@@QAEXPAU_Container_proxy@1@$$QAU21@@Z$0
__ehfuncinfo$??$construct@U_Container_proxy@std@@U12@@?$allocator@U_Container_proxy@std@@@std@@QAEXPAU_Container_proxy@1@$$QAU21@@Z DD 019930522H
	DD	01H
	DD	FLAT:__unwindtable$??$construct@U_Container_proxy@std@@U12@@?$allocator@U_Container_proxy@std@@@std@@QAEXPAU_Container_proxy@1@$$QAU21@@Z
	DD	2 DUP(00H)
	DD	2 DUP(00H)
	DD	00H
	DD	01H
xdata$x	ENDS
;	COMDAT xdata$x
xdata$x	SEGMENT
__ehfuncinfo$?InitScene@@YA_NXZ DD 019930522H
	DD	0dH
	DD	FLAT:__unwindtable$?InitScene@@YA_NXZ
	DD	2 DUP(00H)
	DD	2 DUP(00H)
	DD	00H
	DD	01H
__unwindtable$?InitScene@@YA_NXZ DD 0ffffffffH
	DD	FLAT:__unwindfunclet$?InitScene@@YA_NXZ$0
	DD	0ffffffffH
	DD	FLAT:__unwindfunclet$?InitScene@@YA_NXZ$1
	DD	0ffffffffH
	DD	FLAT:__unwindfunclet$?InitScene@@YA_NXZ$2
	DD	0ffffffffH
	DD	FLAT:__unwindfunclet$?InitScene@@YA_NXZ$3
	DD	0ffffffffH
	DD	FLAT:__unwindfunclet$?InitScene@@YA_NXZ$4
	DD	0ffffffffH
	DD	FLAT:__unwindfunclet$?InitScene@@YA_NXZ$5
	DD	0ffffffffH
	DD	FLAT:__unwindfunclet$?InitScene@@YA_NXZ$6
	DD	0ffffffffH
	DD	FLAT:__unwindfunclet$?InitScene@@YA_NXZ$7
	DD	0ffffffffH
	DD	FLAT:__unwindfunclet$?InitScene@@YA_NXZ$8
	DD	0ffffffffH
	DD	FLAT:__unwindfunclet$?InitScene@@YA_NXZ$9
	DD	0ffffffffH
	DD	FLAT:__unwindfunclet$?InitScene@@YA_NXZ$10
	DD	0ffffffffH
	DD	FLAT:__unwindfunclet$?InitScene@@YA_NXZ$11
	DD	0ffffffffH
	DD	FLAT:__unwindfunclet$?InitScene@@YA_NXZ$12
xdata$x	ENDS
;	COMDAT xdata$x
xdata$x	SEGMENT
__catchsym$?_Copy@?$basic_string@DU?$char_traits@D@std@@V?$allocator@D@2@@std@@QAEXII@Z$5 DD 040H
	DD	00H
	DD	00H
	DD	FLAT:__catch$?_Copy@?$basic_string@DU?$char_traits@D@std@@V?$allocator@D@2@@std@@QAEXII@Z$0
__catchsym$?_Copy@?$basic_string@DU?$char_traits@D@std@@V?$allocator@D@2@@std@@QAEXII@Z$4 DD 040H
	DD	00H
	DD	00H
	DD	FLAT:__catch$?_Copy@?$basic_string@DU?$char_traits@D@std@@V?$allocator@D@2@@std@@QAEXII@Z$1
__unwindtable$?_Copy@?$basic_string@DU?$char_traits@D@std@@V?$allocator@D@2@@std@@QAEXII@Z DD 0ffffffffH
	DD	00H
	DD	0ffffffffH
	DD	00H
	DD	01H
	DD	00H
	DD	01H
	DD	00H
__ehfuncinfo$?_Copy@?$basic_string@DU?$char_traits@D@std@@V?$allocator@D@2@@std@@QAEXII@Z DD 019930522H
	DD	04H
	DD	FLAT:__unwindtable$?_Copy@?$basic_string@DU?$char_traits@D@std@@V?$allocator@D@2@@std@@QAEXII@Z
	DD	02H
	DD	FLAT:__tryblocktable$?_Copy@?$basic_string@DU?$char_traits@D@std@@V?$allocator@D@2@@std@@QAEXII@Z
	DD	2 DUP(00H)
	DD	00H
	DD	01H
__tryblocktable$?_Copy@?$basic_string@DU?$char_traits@D@std@@V?$allocator@D@2@@std@@QAEXII@Z DD 02H
	DD	02H
	DD	03H
	DD	01H
	DD	FLAT:__catchsym$?_Copy@?$basic_string@DU?$char_traits@D@std@@V?$allocator@D@2@@std@@QAEXII@Z$4
	DD	00H
	DD	00H
	DD	03H
	DD	01H
	DD	FLAT:__catchsym$?_Copy@?$basic_string@DU?$char_traits@D@std@@V?$allocator@D@2@@std@@QAEXII@Z$5
xdata$x	ENDS
;	COMDAT xdata$x
xdata$x	SEGMENT
__unwindtable$??0?$basic_string@DU?$char_traits@D@std@@V?$allocator@D@2@@std@@QAE@PBD@Z DD 0ffffffffH
	DD	FLAT:__unwindfunclet$??0?$basic_string@DU?$char_traits@D@std@@V?$allocator@D@2@@std@@QAE@PBD@Z$0
__ehfuncinfo$??0?$basic_string@DU?$char_traits@D@std@@V?$allocator@D@2@@std@@QAE@PBD@Z DD 019930522H
	DD	01H
	DD	FLAT:__unwindtable$??0?$basic_string@DU?$char_traits@D@std@@V?$allocator@D@2@@std@@QAE@PBD@Z
	DD	2 DUP(00H)
	DD	2 DUP(00H)
	DD	00H
	DD	01H
xdata$x	ENDS
;	COMDAT xdata$x
xdata$x	SEGMENT
__unwindtable$??0?$_String_alloc@$0A@U?$_String_base_types@DV?$allocator@D@std@@@std@@@std@@QAE@ABV?$allocator@D@1@@Z DD 0ffffffffH
	DD	FLAT:__unwindfunclet$??0?$_String_alloc@$0A@U?$_String_base_types@DV?$allocator@D@std@@@std@@@std@@QAE@ABV?$allocator@D@1@@Z$0
__ehfuncinfo$??0?$_String_alloc@$0A@U?$_String_base_types@DV?$allocator@D@std@@@std@@@std@@QAE@ABV?$allocator@D@1@@Z DD 019930522H
	DD	01H
	DD	FLAT:__unwindtable$??0?$_String_alloc@$0A@U?$_String_base_types@DV?$allocator@D@std@@@std@@@std@@QAE@ABV?$allocator@D@1@@Z
	DD	2 DUP(00H)
	DD	2 DUP(00H)
	DD	00H
	DD	01H
xdata$x	ENDS
CRT$XCU	SEGMENT
_allocator_arg$initializer$ DD FLAT:??__Eallocator_arg@std@@YAXXZ
CRT$XCU	ENDS
CRT$XCU	SEGMENT
_BackgroundColour$initializer$ DD FLAT:??__EBackgroundColour@@YAXXZ
CRT$XCU	ENDS
CRT$XCU	SEGMENT
_AmbientColour$initializer$ DD FLAT:??__EAmbientColour@@YAXXZ
CRT$XCU	ENDS
CRT$XCU	SEGMENT
_Light1Colour$initializer$ DD FLAT:??__ELight1Colour@@YAXXZ
CRT$XCU	ENDS
CRT$XCU	SEGMENT
_Light2Colour$initializer$ DD FLAT:??__ELight2Colour@@YAXXZ
CRT$XCU	ENDS
;	COMDAT CRT$XCU
CRT$XCU	SEGMENT
?_Generic_object$initializer$@?$_Error_objects@H@std@@2P6AXXZA DD FLAT:??__E?_Generic_object@?$_Error_objects@H@std@@2V_Generic_error_category@2@A@@YAXXZ ; std::_Error_objects<int>::_Generic_object$initializer$
CRT$XCU	ENDS
;	COMDAT CRT$XCU
CRT$XCU	SEGMENT
?_Iostream_object$initializer$@?$_Error_objects@H@std@@2P6AXXZA DD FLAT:??__E?_Iostream_object@?$_Error_objects@H@std@@2V_Iostream_error_category@2@A@@YAXXZ ; std::_Error_objects<int>::_Iostream_object$initializer$
CRT$XCU	ENDS
;	COMDAT CRT$XCU
CRT$XCU	SEGMENT
?_System_object$initializer$@?$_Error_objects@H@std@@2P6AXXZA DD FLAT:??__E?_System_object@?$_Error_objects@H@std@@2V_System_error_category@2@A@@YAXXZ ; std::_Error_objects<int>::_System_object$initializer$
CRT$XCU	ENDS
;	COMDAT CRT$XCU
CRT$XCU	SEGMENT
?id$initializer$@?$num_put@DV?$back_insert_iterator@V?$basic_string@DU?$char_traits@D@std@@V?$allocator@D@2@@std@@@std@@@std@@2P6AXXZA DD FLAT:??__E?id@?$num_put@DV?$back_insert_iterator@V?$basic_string@DU?$char_traits@D@std@@V?$allocator@D@2@@std@@@std@@@std@@2V0locale@2@A@@YAXXZ ; std::num_put<char,std::back_insert_iterator<std::basic_string<char,std::char_traits<char>,std::allocator<char> > > >::id$initializer$
CRT$XCU	ENDS
;	COMDAT CRT$XCU
CRT$XCU	SEGMENT
?id$initializer$@?$num_put@_WV?$back_insert_iterator@V?$basic_string@_WU?$char_traits@_W@std@@V?$allocator@_W@2@@std@@@std@@@std@@2P6AXXZA DD FLAT:??__E?id@?$num_put@_WV?$back_insert_iterator@V?$basic_string@_WU?$char_traits@_W@std@@V?$allocator@_W@2@@std@@@std@@@std@@2V0locale@2@A@@YAXXZ ; std::num_put<wchar_t,std::back_insert_iterator<std::basic_string<wchar_t,std::char_traits<wchar_t>,std::allocator<wchar_t> > > >::id$initializer$
CRT$XCU	ENDS
;	COMDAT CRT$XCU
CRT$XCU	SEGMENT
?id$initializer$@?$numpunct@D@std@@2P6AXXZA DD FLAT:??__E?id@?$numpunct@D@std@@2V0locale@2@A@@YAXXZ ; std::numpunct<char>::id$initializer$
CRT$XCU	ENDS
;	COMDAT CRT$XCU
CRT$XCU	SEGMENT
?id$initializer$@?$numpunct@_W@std@@2P6AXXZA DD FLAT:??__E?id@?$numpunct@_W@std@@2V0locale@2@A@@YAXXZ ; std::numpunct<wchar_t>::id$initializer$
CRT$XCU	ENDS
; Function compile flags: /Odtp /RTCsu /ZI
; File c:\program files (x86)\microsoft visual studio 11.0\vc\include\xmemory0
;	COMDAT ??$destroy@PAD@?$allocator@D@std@@QAEXPAPAD@Z
_TEXT	SEGMENT
_this$ = -8						; size = 4
__Ptr$ = 8						; size = 4
??$destroy@PAD@?$allocator@D@std@@QAEXPAPAD@Z PROC	; std::allocator<char>::destroy<char *>, COMDAT
; _this$ = ecx

; 621  : 		void destroy(_Uty *_Ptr)

	push	ebp
	mov	ebp, esp
	sub	esp, 204				; 000000ccH
	push	ebx
	push	esi
	push	edi
	push	ecx
	lea	edi, DWORD PTR [ebp-204]
	mov	ecx, 51					; 00000033H
	mov	eax, -858993460				; ccccccccH
	rep stosd
	pop	ecx
	mov	DWORD PTR _this$[ebp], ecx

; 622  : 		{	// destroy object at _Ptr
; 623  : 		_Ptr->~_Uty();
; 624  : 		}

	pop	edi
	pop	esi
	pop	ebx
	mov	esp, ebp
	pop	ebp
	ret	4
??$destroy@PAD@?$allocator@D@std@@QAEXPAPAD@Z ENDP	; std::allocator<char>::destroy<char *>
_TEXT	ENDS
; Function compile flags: /Odtp /RTCsu /ZI
; File c:\program files (x86)\microsoft visual studio 11.0\vc\include\xmemory0
;	COMDAT ??$construct@PADAAPAD@?$allocator@D@std@@QAEXPAPADAAPAD@Z
_TEXT	SEGMENT
tv73 = -244						; size = 4
$T2 = -236						; size = 4
$T3 = -224						; size = 4
_this$ = -20						; size = 4
__$EHRec$ = -12						; size = 12
__Ptr$ = 8						; size = 4
__V0$ = 12						; size = 4
??$construct@PADAAPAD@?$allocator@D@std@@QAEXPAPADAAPAD@Z PROC ; std::allocator<char>::construct<char *,char * &>, COMDAT
; _this$ = ecx

; 617  : _VARIADIC_EXPAND_0X(_ALLOC_MEMBER_CONSTRUCT, , , , )

	push	ebp
	mov	ebp, esp
	push	-1
	push	__ehhandler$??$construct@PADAAPAD@?$allocator@D@std@@QAEXPAPADAAPAD@Z
	mov	eax, DWORD PTR fs:0
	push	eax
	sub	esp, 232				; 000000e8H
	push	ebx
	push	esi
	push	edi
	push	ecx
	lea	edi, DWORD PTR [ebp-244]
	mov	ecx, 58					; 0000003aH
	mov	eax, -858993460				; ccccccccH
	rep stosd
	pop	ecx
	mov	eax, DWORD PTR ___security_cookie
	xor	eax, ebp
	push	eax
	lea	eax, DWORD PTR __$EHRec$[ebp]
	mov	DWORD PTR fs:0, eax
	mov	DWORD PTR _this$[ebp], ecx
	mov	eax, DWORD PTR __Ptr$[ebp]
	push	eax
	push	4
	call	??2@YAPAXIPAX@Z				; operator new
	add	esp, 8
	mov	DWORD PTR $T3[ebp], eax
	mov	DWORD PTR __$EHRec$[ebp+8], 0
	cmp	DWORD PTR $T3[ebp], 0
	je	SHORT $LN3@construct
	mov	ecx, DWORD PTR __V0$[ebp]
	push	ecx
	call	??$forward@AAPAD@std@@YAAAPADAAPAD@Z	; std::forward<char * &>
	add	esp, 4
	mov	edx, DWORD PTR $T3[ebp]
	mov	eax, DWORD PTR [eax]
	mov	DWORD PTR [edx], eax
	mov	ecx, DWORD PTR $T3[ebp]
	mov	DWORD PTR tv73[ebp], ecx
	jmp	SHORT $LN4@construct
$LN3@construct:
	mov	DWORD PTR tv73[ebp], 0
$LN4@construct:
	mov	edx, DWORD PTR tv73[ebp]
	mov	DWORD PTR $T2[ebp], edx
	mov	DWORD PTR __$EHRec$[ebp+8], -1
	mov	ecx, DWORD PTR __$EHRec$[ebp]
	mov	DWORD PTR fs:0, ecx
	pop	ecx
	pop	edi
	pop	esi
	pop	ebx
	add	esp, 244				; 000000f4H
	cmp	ebp, esp
	call	__RTC_CheckEsp
	mov	esp, ebp
	pop	ebp
	ret	8
_TEXT	ENDS
;	COMDAT text$x
text$x	SEGMENT
__unwindfunclet$??$construct@PADAAPAD@?$allocator@D@std@@QAEXPAPADAAPAD@Z$0:
	mov	eax, DWORD PTR __Ptr$[ebp]
	push	eax
	mov	eax, DWORD PTR $T3[ebp]
	push	eax
	call	??3@YAXPAX0@Z				; operator delete
	add	esp, 8
	ret	0
__ehhandler$??$construct@PADAAPAD@?$allocator@D@std@@QAEXPAPADAAPAD@Z:
	mov	edx, DWORD PTR [esp+8]
	lea	eax, DWORD PTR [edx+12]
	mov	ecx, DWORD PTR [edx-248]
	xor	ecx, eax
	call	@__security_check_cookie@4
	mov	eax, OFFSET __ehfuncinfo$??$construct@PADAAPAD@?$allocator@D@std@@QAEXPAPADAAPAD@Z
	jmp	___CxxFrameHandler3
text$x	ENDS
??$construct@PADAAPAD@?$allocator@D@std@@QAEXPAPADAAPAD@Z ENDP ; std::allocator<char>::construct<char *,char * &>
; Function compile flags: /Odtp /RTCsu /ZI
; File c:\program files (x86)\microsoft visual studio 11.0\vc\include\xlocnum
;	COMDAT ??__E?id@?$numpunct@_W@std@@2V0locale@2@A@@YAXXZ
text$yc	SEGMENT
??__E?id@?$numpunct@_W@std@@2V0locale@2@A@@YAXXZ PROC	; `dynamic initializer for 'std::numpunct<wchar_t>::id'', COMDAT

; 155  : 		void _Getvals(wchar_t, const lconv *_Ptr, _Locinfo::_Cvtvec)

	push	ebp
	mov	ebp, esp
	sub	esp, 192				; 000000c0H
	push	ebx
	push	esi
	push	edi
	lea	edi, DWORD PTR [ebp-192]
	mov	ecx, 48					; 00000030H
	mov	eax, -858993460				; ccccccccH
	rep stosd
	push	0
	mov	ecx, OFFSET ?id@?$numpunct@_W@std@@2V0locale@2@A ; std::numpunct<wchar_t>::id
	call	??0id@locale@std@@QAE@I@Z		; std::locale::id::id
	pop	edi
	pop	esi
	pop	ebx
	add	esp, 192				; 000000c0H
	cmp	ebp, esp
	call	__RTC_CheckEsp
	mov	esp, ebp
	pop	ebp
	ret	0
??__E?id@?$numpunct@_W@std@@2V0locale@2@A@@YAXXZ ENDP	; `dynamic initializer for 'std::numpunct<wchar_t>::id''
text$yc	ENDS
; Function compile flags: /Odtp /RTCsu /ZI
; File c:\program files (x86)\microsoft visual studio 11.0\vc\include\xlocnum
;	COMDAT ??__E?id@?$numpunct@D@std@@2V0locale@2@A@@YAXXZ
text$yc	SEGMENT
??__E?id@?$numpunct@D@std@@2V0locale@2@A@@YAXXZ PROC	; `dynamic initializer for 'std::numpunct<char>::id'', COMDAT

; 155  : 		void _Getvals(wchar_t, const lconv *_Ptr, _Locinfo::_Cvtvec)

	push	ebp
	mov	ebp, esp
	sub	esp, 192				; 000000c0H
	push	ebx
	push	esi
	push	edi
	lea	edi, DWORD PTR [ebp-192]
	mov	ecx, 48					; 00000030H
	mov	eax, -858993460				; ccccccccH
	rep stosd
	push	0
	mov	ecx, OFFSET ?id@?$numpunct@D@std@@2V0locale@2@A ; std::numpunct<char>::id
	call	??0id@locale@std@@QAE@I@Z		; std::locale::id::id
	pop	edi
	pop	esi
	pop	ebx
	add	esp, 192				; 000000c0H
	cmp	ebp, esp
	call	__RTC_CheckEsp
	mov	esp, ebp
	pop	ebp
	ret	0
??__E?id@?$numpunct@D@std@@2V0locale@2@A@@YAXXZ ENDP	; `dynamic initializer for 'std::numpunct<char>::id''
text$yc	ENDS
; Function compile flags: /Odtp /RTCsu /ZI
; File c:\program files (x86)\microsoft visual studio 11.0\vc\include\xlocnum
;	COMDAT ??__E?id@?$num_put@_WV?$back_insert_iterator@V?$basic_string@_WU?$char_traits@_W@std@@V?$allocator@_W@2@@std@@@std@@@std@@2V0locale@2@A@@YAXXZ
text$yc	SEGMENT
??__E?id@?$num_put@_WV?$back_insert_iterator@V?$basic_string@_WU?$char_traits@_W@std@@V?$allocator@_W@2@@std@@@std@@@std@@2V0locale@2@A@@YAXXZ PROC ; `dynamic initializer for 'std::num_put<wchar_t,std::back_insert_iterator<std::basic_string<wchar_t,std::char_traits<wchar_t>,std::allocator<wchar_t> > > >::id'', COMDAT

; 155  : 		void _Getvals(wchar_t, const lconv *_Ptr, _Locinfo::_Cvtvec)

	push	ebp
	mov	ebp, esp
	sub	esp, 192				; 000000c0H
	push	ebx
	push	esi
	push	edi
	lea	edi, DWORD PTR [ebp-192]
	mov	ecx, 48					; 00000030H
	mov	eax, -858993460				; ccccccccH
	rep stosd
	push	0
	mov	ecx, OFFSET ?id@?$num_put@_WV?$back_insert_iterator@V?$basic_string@_WU?$char_traits@_W@std@@V?$allocator@_W@2@@std@@@std@@@std@@2V0locale@2@A ; std::num_put<wchar_t,std::back_insert_iterator<std::basic_string<wchar_t,std::char_traits<wchar_t>,std::allocator<wchar_t> > > >::id
	call	??0id@locale@std@@QAE@I@Z		; std::locale::id::id
	pop	edi
	pop	esi
	pop	ebx
	add	esp, 192				; 000000c0H
	cmp	ebp, esp
	call	__RTC_CheckEsp
	mov	esp, ebp
	pop	ebp
	ret	0
??__E?id@?$num_put@_WV?$back_insert_iterator@V?$basic_string@_WU?$char_traits@_W@std@@V?$allocator@_W@2@@std@@@std@@@std@@2V0locale@2@A@@YAXXZ ENDP ; `dynamic initializer for 'std::num_put<wchar_t,std::back_insert_iterator<std::basic_string<wchar_t,std::char_traits<wchar_t>,std::allocator<wchar_t> > > >::id''
text$yc	ENDS
; Function compile flags: /Odtp /RTCsu /ZI
; File c:\program files (x86)\microsoft visual studio 11.0\vc\include\xlocnum
;	COMDAT ??__E?id@?$num_put@DV?$back_insert_iterator@V?$basic_string@DU?$char_traits@D@std@@V?$allocator@D@2@@std@@@std@@@std@@2V0locale@2@A@@YAXXZ
text$yc	SEGMENT
??__E?id@?$num_put@DV?$back_insert_iterator@V?$basic_string@DU?$char_traits@D@std@@V?$allocator@D@2@@std@@@std@@@std@@2V0locale@2@A@@YAXXZ PROC ; `dynamic initializer for 'std::num_put<char,std::back_insert_iterator<std::basic_string<char,std::char_traits<char>,std::allocator<char> > > >::id'', COMDAT

; 155  : 		void _Getvals(wchar_t, const lconv *_Ptr, _Locinfo::_Cvtvec)

	push	ebp
	mov	ebp, esp
	sub	esp, 192				; 000000c0H
	push	ebx
	push	esi
	push	edi
	lea	edi, DWORD PTR [ebp-192]
	mov	ecx, 48					; 00000030H
	mov	eax, -858993460				; ccccccccH
	rep stosd
	push	0
	mov	ecx, OFFSET ?id@?$num_put@DV?$back_insert_iterator@V?$basic_string@DU?$char_traits@D@std@@V?$allocator@D@2@@std@@@std@@@std@@2V0locale@2@A ; std::num_put<char,std::back_insert_iterator<std::basic_string<char,std::char_traits<char>,std::allocator<char> > > >::id
	call	??0id@locale@std@@QAE@I@Z		; std::locale::id::id
	pop	edi
	pop	esi
	pop	ebx
	add	esp, 192				; 000000c0H
	cmp	ebp, esp
	call	__RTC_CheckEsp
	mov	esp, ebp
	pop	ebp
	ret	0
??__E?id@?$num_put@DV?$back_insert_iterator@V?$basic_string@DU?$char_traits@D@std@@V?$allocator@D@2@@std@@@std@@@std@@2V0locale@2@A@@YAXXZ ENDP ; `dynamic initializer for 'std::num_put<char,std::back_insert_iterator<std::basic_string<char,std::char_traits<char>,std::allocator<char> > > >::id''
text$yc	ENDS
; Function compile flags: /Odtp /RTCsu /ZI
; File c:\program files (x86)\microsoft visual studio 11.0\vc\include\type_traits
;	COMDAT ??$forward@U_Container_proxy@std@@@std@@YA$$QAU_Container_proxy@0@AAU10@@Z
_TEXT	SEGMENT
__Arg$ = 8						; size = 4
??$forward@U_Container_proxy@std@@@std@@YA$$QAU_Container_proxy@0@AAU10@@Z PROC ; std::forward<std::_Container_proxy>, COMDAT

; 1775 : 	{	// forward an lvalue

	push	ebp
	mov	ebp, esp
	sub	esp, 192				; 000000c0H
	push	ebx
	push	esi
	push	edi
	lea	edi, DWORD PTR [ebp-192]
	mov	ecx, 48					; 00000030H
	mov	eax, -858993460				; ccccccccH
	rep stosd

; 1776 : 	return (static_cast<_Ty&&>(_Arg));

	mov	eax, DWORD PTR __Arg$[ebp]

; 1777 : 	}

	pop	edi
	pop	esi
	pop	ebx
	mov	esp, ebp
	pop	ebp
	ret	0
??$forward@U_Container_proxy@std@@@std@@YA$$QAU_Container_proxy@0@AAU10@@Z ENDP ; std::forward<std::_Container_proxy>
_TEXT	ENDS
; Function compile flags: /Odtp /RTCsu /ZI
; File c:\program files (x86)\microsoft visual studio 11.0\vc\include\xmemory0
;	COMDAT ??$destroy@PAD@?$allocator_traits@V?$allocator@D@std@@@std@@SAXAAV?$allocator@D@1@PAPAD@Z
_TEXT	SEGMENT
__Al$ = 8						; size = 4
__Ptr$ = 12						; size = 4
??$destroy@PAD@?$allocator_traits@V?$allocator@D@std@@@std@@SAXAAV?$allocator@D@1@PAPAD@Z PROC ; std::allocator_traits<std::allocator<char> >::destroy<char *>, COMDAT

; 755  : 		static void destroy(_Alloc& _Al, _Uty *_Ptr)

	push	ebp
	mov	ebp, esp
	sub	esp, 192				; 000000c0H
	push	ebx
	push	esi
	push	edi
	lea	edi, DWORD PTR [ebp-192]
	mov	ecx, 48					; 00000030H
	mov	eax, -858993460				; ccccccccH
	rep stosd

; 756  : 		{	// destroy object at _Ptr
; 757  : 		_Al.destroy(_Ptr);

	mov	eax, DWORD PTR __Ptr$[ebp]
	push	eax
	mov	ecx, DWORD PTR __Al$[ebp]
	call	??$destroy@PAD@?$allocator@D@std@@QAEXPAPAD@Z ; std::allocator<char>::destroy<char *>

; 758  : 		}

	pop	edi
	pop	esi
	pop	ebx
	add	esp, 192				; 000000c0H
	cmp	ebp, esp
	call	__RTC_CheckEsp
	mov	esp, ebp
	pop	ebp
	ret	0
??$destroy@PAD@?$allocator_traits@V?$allocator@D@std@@@std@@SAXAAV?$allocator@D@1@PAPAD@Z ENDP ; std::allocator_traits<std::allocator<char> >::destroy<char *>
_TEXT	ENDS
; Function compile flags: /Odtp /RTCsu /ZI
; File c:\program files (x86)\microsoft visual studio 11.0\vc\include\xmemory0
;	COMDAT ??$construct@PADAAPAD@?$allocator_traits@V?$allocator@D@std@@@std@@SAXAAV?$allocator@D@1@PAPADAAPAD@Z
_TEXT	SEGMENT
__Al$ = 8						; size = 4
__Ptr$ = 12						; size = 4
__V0$ = 16						; size = 4
??$construct@PADAAPAD@?$allocator_traits@V?$allocator@D@std@@@std@@SAXAAV?$allocator@D@1@PAPADAAPAD@Z PROC ; std::allocator_traits<std::allocator<char> >::construct<char *,char * &>, COMDAT

; 751  : _VARIADIC_EXPAND_0X(_ALLOC_TRAITS_SPECIAL_CONSTRUCT, , , , )

	push	ebp
	mov	ebp, esp
	sub	esp, 192				; 000000c0H
	push	ebx
	push	esi
	push	edi
	lea	edi, DWORD PTR [ebp-192]
	mov	ecx, 48					; 00000030H
	mov	eax, -858993460				; ccccccccH
	rep stosd
	mov	eax, DWORD PTR __V0$[ebp]
	push	eax
	call	??$forward@AAPAD@std@@YAAAPADAAPAD@Z	; std::forward<char * &>
	add	esp, 4
	push	eax
	mov	ecx, DWORD PTR __Ptr$[ebp]
	push	ecx
	mov	ecx, DWORD PTR __Al$[ebp]
	call	??$construct@PADAAPAD@?$allocator@D@std@@QAEXPAPADAAPAD@Z ; std::allocator<char>::construct<char *,char * &>
	pop	edi
	pop	esi
	pop	ebx
	add	esp, 192				; 000000c0H
	cmp	ebp, esp
	call	__RTC_CheckEsp
	mov	esp, ebp
	pop	ebp
	ret	0
??$construct@PADAAPAD@?$allocator_traits@V?$allocator@D@std@@@std@@SAXAAV?$allocator@D@1@PAPADAAPAD@Z ENDP ; std::allocator_traits<std::allocator<char> >::construct<char *,char * &>
_TEXT	ENDS
; Function compile flags: /Odtp /RTCsu /ZI
; File c:\program files (x86)\microsoft visual studio 11.0\vc\include\type_traits
;	COMDAT ??$forward@AAPAD@std@@YAAAPADAAPAD@Z
_TEXT	SEGMENT
__Arg$ = 8						; size = 4
??$forward@AAPAD@std@@YAAAPADAAPAD@Z PROC		; std::forward<char * &>, COMDAT

; 1775 : 	{	// forward an lvalue

	push	ebp
	mov	ebp, esp
	sub	esp, 192				; 000000c0H
	push	ebx
	push	esi
	push	edi
	lea	edi, DWORD PTR [ebp-192]
	mov	ecx, 48					; 00000030H
	mov	eax, -858993460				; ccccccccH
	rep stosd

; 1776 : 	return (static_cast<_Ty&&>(_Arg));

	mov	eax, DWORD PTR __Arg$[ebp]

; 1777 : 	}

	pop	edi
	pop	esi
	pop	ebx
	mov	esp, ebp
	pop	ebp
	ret	0
??$forward@AAPAD@std@@YAAAPADAAPAD@Z ENDP		; std::forward<char * &>
_TEXT	ENDS
; Function compile flags: /Odtp /RTCsu /ZI
;	COMDAT ??__F?_System_object@?$_Error_objects@H@std@@2V_System_error_category@2@A@@YAXXZ
text$yd	SEGMENT
??__F?_System_object@?$_Error_objects@H@std@@2V_System_error_category@2@A@@YAXXZ PROC ; `dynamic atexit destructor for 'std::_Error_objects<int>::_System_object'', COMDAT
	push	ebp
	mov	ebp, esp
	sub	esp, 192				; 000000c0H
	push	ebx
	push	esi
	push	edi
	lea	edi, DWORD PTR [ebp-192]
	mov	ecx, 48					; 00000030H
	mov	eax, -858993460				; ccccccccH
	rep stosd
	mov	ecx, OFFSET ?_System_object@?$_Error_objects@H@std@@2V_System_error_category@2@A ; std::_Error_objects<int>::_System_object
	call	??1_System_error_category@std@@UAE@XZ
	pop	edi
	pop	esi
	pop	ebx
	add	esp, 192				; 000000c0H
	cmp	ebp, esp
	call	__RTC_CheckEsp
	mov	esp, ebp
	pop	ebp
	ret	0
??__F?_System_object@?$_Error_objects@H@std@@2V_System_error_category@2@A@@YAXXZ ENDP ; `dynamic atexit destructor for 'std::_Error_objects<int>::_System_object''
text$yd	ENDS
; Function compile flags: /Odtp /RTCsu /ZI
; File c:\program files (x86)\microsoft visual studio 11.0\vc\include\xmemory0
;	COMDAT ??__E?_System_object@?$_Error_objects@H@std@@2V_System_error_category@2@A@@YAXXZ
text$yc	SEGMENT
??__E?_System_object@?$_Error_objects@H@std@@2V_System_error_category@2@A@@YAXXZ PROC ; `dynamic initializer for 'std::_Error_objects<int>::_System_object'', COMDAT

; 627  : 		{	// estimate maximum array size

	push	ebp
	mov	ebp, esp
	sub	esp, 192				; 000000c0H
	push	ebx
	push	esi
	push	edi
	lea	edi, DWORD PTR [ebp-192]
	mov	ecx, 48					; 00000030H
	mov	eax, -858993460				; ccccccccH
	rep stosd
	mov	ecx, OFFSET ?_System_object@?$_Error_objects@H@std@@2V_System_error_category@2@A ; std::_Error_objects<int>::_System_object
	call	??0_System_error_category@std@@QAE@XZ	; std::_System_error_category::_System_error_category
	push	OFFSET ??__F?_System_object@?$_Error_objects@H@std@@2V_System_error_category@2@A@@YAXXZ ; `dynamic atexit destructor for 'std::_Error_objects<int>::_System_object''
	call	_atexit
	add	esp, 4
	pop	edi
	pop	esi
	pop	ebx
	add	esp, 192				; 000000c0H
	cmp	ebp, esp
	call	__RTC_CheckEsp
	mov	esp, ebp
	pop	ebp
	ret	0
??__E?_System_object@?$_Error_objects@H@std@@2V_System_error_category@2@A@@YAXXZ ENDP ; `dynamic initializer for 'std::_Error_objects<int>::_System_object''
text$yc	ENDS
; Function compile flags: /Odtp /RTCsu /ZI
;	COMDAT ??__F?_Iostream_object@?$_Error_objects@H@std@@2V_Iostream_error_category@2@A@@YAXXZ
text$yd	SEGMENT
??__F?_Iostream_object@?$_Error_objects@H@std@@2V_Iostream_error_category@2@A@@YAXXZ PROC ; `dynamic atexit destructor for 'std::_Error_objects<int>::_Iostream_object'', COMDAT
	push	ebp
	mov	ebp, esp
	sub	esp, 192				; 000000c0H
	push	ebx
	push	esi
	push	edi
	lea	edi, DWORD PTR [ebp-192]
	mov	ecx, 48					; 00000030H
	mov	eax, -858993460				; ccccccccH
	rep stosd
	mov	ecx, OFFSET ?_Iostream_object@?$_Error_objects@H@std@@2V_Iostream_error_category@2@A ; std::_Error_objects<int>::_Iostream_object
	call	??1_Iostream_error_category@std@@UAE@XZ
	pop	edi
	pop	esi
	pop	ebx
	add	esp, 192				; 000000c0H
	cmp	ebp, esp
	call	__RTC_CheckEsp
	mov	esp, ebp
	pop	ebp
	ret	0
??__F?_Iostream_object@?$_Error_objects@H@std@@2V_Iostream_error_category@2@A@@YAXXZ ENDP ; `dynamic atexit destructor for 'std::_Error_objects<int>::_Iostream_object''
text$yd	ENDS
; Function compile flags: /Odtp /RTCsu /ZI
; File c:\program files (x86)\microsoft visual studio 11.0\vc\include\xmemory0
;	COMDAT ??__E?_Iostream_object@?$_Error_objects@H@std@@2V_Iostream_error_category@2@A@@YAXXZ
text$yc	SEGMENT
??__E?_Iostream_object@?$_Error_objects@H@std@@2V_Iostream_error_category@2@A@@YAXXZ PROC ; `dynamic initializer for 'std::_Error_objects<int>::_Iostream_object'', COMDAT

; 627  : 		{	// estimate maximum array size

	push	ebp
	mov	ebp, esp
	sub	esp, 192				; 000000c0H
	push	ebx
	push	esi
	push	edi
	lea	edi, DWORD PTR [ebp-192]
	mov	ecx, 48					; 00000030H
	mov	eax, -858993460				; ccccccccH
	rep stosd
	mov	ecx, OFFSET ?_Iostream_object@?$_Error_objects@H@std@@2V_Iostream_error_category@2@A ; std::_Error_objects<int>::_Iostream_object
	call	??0_Iostream_error_category@std@@QAE@XZ	; std::_Iostream_error_category::_Iostream_error_category
	push	OFFSET ??__F?_Iostream_object@?$_Error_objects@H@std@@2V_Iostream_error_category@2@A@@YAXXZ ; `dynamic atexit destructor for 'std::_Error_objects<int>::_Iostream_object''
	call	_atexit
	add	esp, 4
	pop	edi
	pop	esi
	pop	ebx
	add	esp, 192				; 000000c0H
	cmp	ebp, esp
	call	__RTC_CheckEsp
	mov	esp, ebp
	pop	ebp
	ret	0
??__E?_Iostream_object@?$_Error_objects@H@std@@2V_Iostream_error_category@2@A@@YAXXZ ENDP ; `dynamic initializer for 'std::_Error_objects<int>::_Iostream_object''
text$yc	ENDS
; Function compile flags: /Odtp /RTCsu /ZI
;	COMDAT ??__F?_Generic_object@?$_Error_objects@H@std@@2V_Generic_error_category@2@A@@YAXXZ
text$yd	SEGMENT
??__F?_Generic_object@?$_Error_objects@H@std@@2V_Generic_error_category@2@A@@YAXXZ PROC ; `dynamic atexit destructor for 'std::_Error_objects<int>::_Generic_object'', COMDAT
	push	ebp
	mov	ebp, esp
	sub	esp, 192				; 000000c0H
	push	ebx
	push	esi
	push	edi
	lea	edi, DWORD PTR [ebp-192]
	mov	ecx, 48					; 00000030H
	mov	eax, -858993460				; ccccccccH
	rep stosd
	mov	ecx, OFFSET ?_Generic_object@?$_Error_objects@H@std@@2V_Generic_error_category@2@A ; std::_Error_objects<int>::_Generic_object
	call	??1_Generic_error_category@std@@UAE@XZ
	pop	edi
	pop	esi
	pop	ebx
	add	esp, 192				; 000000c0H
	cmp	ebp, esp
	call	__RTC_CheckEsp
	mov	esp, ebp
	pop	ebp
	ret	0
??__F?_Generic_object@?$_Error_objects@H@std@@2V_Generic_error_category@2@A@@YAXXZ ENDP ; `dynamic atexit destructor for 'std::_Error_objects<int>::_Generic_object''
text$yd	ENDS
; Function compile flags: /Odtp /RTCsu /ZI
; File c:\program files (x86)\microsoft visual studio 11.0\vc\include\xmemory0
;	COMDAT ??__E?_Generic_object@?$_Error_objects@H@std@@2V_Generic_error_category@2@A@@YAXXZ
text$yc	SEGMENT
??__E?_Generic_object@?$_Error_objects@H@std@@2V_Generic_error_category@2@A@@YAXXZ PROC ; `dynamic initializer for 'std::_Error_objects<int>::_Generic_object'', COMDAT

; 627  : 		{	// estimate maximum array size

	push	ebp
	mov	ebp, esp
	sub	esp, 192				; 000000c0H
	push	ebx
	push	esi
	push	edi
	lea	edi, DWORD PTR [ebp-192]
	mov	ecx, 48					; 00000030H
	mov	eax, -858993460				; ccccccccH
	rep stosd
	mov	ecx, OFFSET ?_Generic_object@?$_Error_objects@H@std@@2V_Generic_error_category@2@A ; std::_Error_objects<int>::_Generic_object
	call	??0_Generic_error_category@std@@QAE@XZ	; std::_Generic_error_category::_Generic_error_category
	push	OFFSET ??__F?_Generic_object@?$_Error_objects@H@std@@2V_Generic_error_category@2@A@@YAXXZ ; `dynamic atexit destructor for 'std::_Error_objects<int>::_Generic_object''
	call	_atexit
	add	esp, 4
	pop	edi
	pop	esi
	pop	ebx
	add	esp, 192				; 000000c0H
	cmp	ebp, esp
	call	__RTC_CheckEsp
	mov	esp, ebp
	pop	ebp
	ret	0
??__E?_Generic_object@?$_Error_objects@H@std@@2V_Generic_error_category@2@A@@YAXXZ ENDP ; `dynamic initializer for 'std::_Error_objects<int>::_Generic_object''
text$yc	ENDS
; Function compile flags: /Odtp /RTCsu /ZI
; File c:\program files (x86)\microsoft visual studio 11.0\vc\include\xmemory0
;	COMDAT ??$_Allocate@D@std@@YAPADIPAD@Z
_TEXT	SEGMENT
__Ptr$ = -8						; size = 4
__Count$ = 8						; size = 4
___formal$ = 12						; size = 4
??$_Allocate@D@std@@YAPADIPAD@Z PROC			; std::_Allocate<char>, COMDAT

; 22   : 	{	// allocate storage for _Count elements of type _Ty

	push	ebp
	mov	ebp, esp
	sub	esp, 204				; 000000ccH
	push	ebx
	push	esi
	push	edi
	lea	edi, DWORD PTR [ebp-204]
	mov	ecx, 51					; 00000033H
	mov	eax, -858993460				; ccccccccH
	rep stosd

; 23   : 	void *_Ptr = 0;

	mov	DWORD PTR __Ptr$[ebp], 0

; 24   : 
; 25   : 	if (_Count == 0)

	cmp	DWORD PTR __Count$[ebp], 0
	jne	SHORT $LN4@Allocate

; 26   : 		;
; 27   : 	else if (((size_t)(-1) / sizeof (_Ty) < _Count)

	jmp	SHORT $LN3@Allocate
$LN4@Allocate:

; 28   : 		|| (_Ptr = ::operator new(_Count * sizeof (_Ty))) == 0)

	cmp	DWORD PTR __Count$[ebp], -1
	ja	SHORT $LN1@Allocate
	mov	eax, DWORD PTR __Count$[ebp]
	push	eax
	call	??2@YAPAXI@Z				; operator new
	add	esp, 4
	mov	DWORD PTR __Ptr$[ebp], eax
	cmp	DWORD PTR __Ptr$[ebp], 0
	jne	SHORT $LN3@Allocate
$LN1@Allocate:

; 29   : 		_Xbad_alloc();	// report no memory

	call	?_Xbad_alloc@std@@YAXXZ			; std::_Xbad_alloc
$LN3@Allocate:

; 30   : 
; 31   : 	return ((_Ty *)_Ptr);

	mov	eax, DWORD PTR __Ptr$[ebp]
$LN6@Allocate:

; 32   : 	}

	pop	edi
	pop	esi
	pop	ebx
	add	esp, 204				; 000000ccH
	cmp	ebp, esp
	call	__RTC_CheckEsp
	mov	esp, ebp
	pop	ebp
	ret	0
??$_Allocate@D@std@@YAPADIPAD@Z ENDP			; std::_Allocate<char>
_TEXT	ENDS
; Function compile flags: /Odtp /RTCsu /ZI
; File c:\program files (x86)\microsoft visual studio 11.0\vc\include\xmemory0
;	COMDAT ??$_Allocate@U_Container_proxy@std@@@std@@YAPAU_Container_proxy@0@IPAU10@@Z
_TEXT	SEGMENT
__Ptr$ = -8						; size = 4
__Count$ = 8						; size = 4
___formal$ = 12						; size = 4
??$_Allocate@U_Container_proxy@std@@@std@@YAPAU_Container_proxy@0@IPAU10@@Z PROC ; std::_Allocate<std::_Container_proxy>, COMDAT

; 22   : 	{	// allocate storage for _Count elements of type _Ty

	push	ebp
	mov	ebp, esp
	sub	esp, 204				; 000000ccH
	push	ebx
	push	esi
	push	edi
	lea	edi, DWORD PTR [ebp-204]
	mov	ecx, 51					; 00000033H
	mov	eax, -858993460				; ccccccccH
	rep stosd

; 23   : 	void *_Ptr = 0;

	mov	DWORD PTR __Ptr$[ebp], 0

; 24   : 
; 25   : 	if (_Count == 0)

	cmp	DWORD PTR __Count$[ebp], 0
	jne	SHORT $LN4@Allocate

; 26   : 		;
; 27   : 	else if (((size_t)(-1) / sizeof (_Ty) < _Count)

	jmp	SHORT $LN3@Allocate
$LN4@Allocate:

; 28   : 		|| (_Ptr = ::operator new(_Count * sizeof (_Ty))) == 0)

	cmp	DWORD PTR __Count$[ebp], 536870911	; 1fffffffH
	ja	SHORT $LN1@Allocate
	mov	eax, DWORD PTR __Count$[ebp]
	shl	eax, 3
	push	eax
	call	??2@YAPAXI@Z				; operator new
	add	esp, 4
	mov	DWORD PTR __Ptr$[ebp], eax
	cmp	DWORD PTR __Ptr$[ebp], 0
	jne	SHORT $LN3@Allocate
$LN1@Allocate:

; 29   : 		_Xbad_alloc();	// report no memory

	call	?_Xbad_alloc@std@@YAXXZ			; std::_Xbad_alloc
$LN3@Allocate:

; 30   : 
; 31   : 	return ((_Ty *)_Ptr);

	mov	eax, DWORD PTR __Ptr$[ebp]
$LN6@Allocate:

; 32   : 	}

	pop	edi
	pop	esi
	pop	ebx
	add	esp, 204				; 000000ccH
	cmp	ebp, esp
	call	__RTC_CheckEsp
	mov	esp, ebp
	pop	ebp
	ret	0
??$_Allocate@U_Container_proxy@std@@@std@@YAPAU_Container_proxy@0@IPAU10@@Z ENDP ; std::_Allocate<std::_Container_proxy>
_TEXT	ENDS
; Function compile flags: /Odtp /RTCsu /ZI
; File c:\program files (x86)\microsoft visual studio 11.0\vc\include\xmemory0
;	COMDAT ??$destroy@U_Container_proxy@std@@@?$allocator@U_Container_proxy@std@@@std@@QAEXPAU_Container_proxy@1@@Z
_TEXT	SEGMENT
_this$ = -8						; size = 4
__Ptr$ = 8						; size = 4
??$destroy@U_Container_proxy@std@@@?$allocator@U_Container_proxy@std@@@std@@QAEXPAU_Container_proxy@1@@Z PROC ; std::allocator<std::_Container_proxy>::destroy<std::_Container_proxy>, COMDAT
; _this$ = ecx

; 621  : 		void destroy(_Uty *_Ptr)

	push	ebp
	mov	ebp, esp
	sub	esp, 204				; 000000ccH
	push	ebx
	push	esi
	push	edi
	push	ecx
	lea	edi, DWORD PTR [ebp-204]
	mov	ecx, 51					; 00000033H
	mov	eax, -858993460				; ccccccccH
	rep stosd
	pop	ecx
	mov	DWORD PTR _this$[ebp], ecx

; 622  : 		{	// destroy object at _Ptr
; 623  : 		_Ptr->~_Uty();
; 624  : 		}

	pop	edi
	pop	esi
	pop	ebx
	mov	esp, ebp
	pop	ebp
	ret	4
??$destroy@U_Container_proxy@std@@@?$allocator@U_Container_proxy@std@@@std@@QAEXPAU_Container_proxy@1@@Z ENDP ; std::allocator<std::_Container_proxy>::destroy<std::_Container_proxy>
_TEXT	ENDS
; Function compile flags: /Odtp /RTCsu /ZI
; File c:\program files (x86)\microsoft visual studio 11.0\vc\include\xmemory0
;	COMDAT ??$construct@U_Container_proxy@std@@U12@@?$allocator@U_Container_proxy@std@@@std@@QAEXPAU_Container_proxy@1@$$QAU21@@Z
_TEXT	SEGMENT
tv74 = -244						; size = 4
$T2 = -236						; size = 4
$T3 = -224						; size = 4
_this$ = -20						; size = 4
__$EHRec$ = -12						; size = 12
__Ptr$ = 8						; size = 4
__V0$ = 12						; size = 4
??$construct@U_Container_proxy@std@@U12@@?$allocator@U_Container_proxy@std@@@std@@QAEXPAU_Container_proxy@1@$$QAU21@@Z PROC ; std::allocator<std::_Container_proxy>::construct<std::_Container_proxy,std::_Container_proxy>, COMDAT
; _this$ = ecx

; 617  : _VARIADIC_EXPAND_0X(_ALLOC_MEMBER_CONSTRUCT, , , , )

	push	ebp
	mov	ebp, esp
	push	-1
	push	__ehhandler$??$construct@U_Container_proxy@std@@U12@@?$allocator@U_Container_proxy@std@@@std@@QAEXPAU_Container_proxy@1@$$QAU21@@Z
	mov	eax, DWORD PTR fs:0
	push	eax
	sub	esp, 232				; 000000e8H
	push	ebx
	push	esi
	push	edi
	push	ecx
	lea	edi, DWORD PTR [ebp-244]
	mov	ecx, 58					; 0000003aH
	mov	eax, -858993460				; ccccccccH
	rep stosd
	pop	ecx
	mov	eax, DWORD PTR ___security_cookie
	xor	eax, ebp
	push	eax
	lea	eax, DWORD PTR __$EHRec$[ebp]
	mov	DWORD PTR fs:0, eax
	mov	DWORD PTR _this$[ebp], ecx
	mov	eax, DWORD PTR __Ptr$[ebp]
	push	eax
	push	8
	call	??2@YAPAXIPAX@Z				; operator new
	add	esp, 8
	mov	DWORD PTR $T3[ebp], eax
	mov	DWORD PTR __$EHRec$[ebp+8], 0
	cmp	DWORD PTR $T3[ebp], 0
	je	SHORT $LN3@construct
	mov	ecx, DWORD PTR __V0$[ebp]
	push	ecx
	call	??$forward@U_Container_proxy@std@@@std@@YA$$QAU_Container_proxy@0@AAU10@@Z ; std::forward<std::_Container_proxy>
	add	esp, 4
	mov	edx, DWORD PTR [eax]
	mov	eax, DWORD PTR [eax+4]
	mov	ecx, DWORD PTR $T3[ebp]
	mov	DWORD PTR [ecx], edx
	mov	DWORD PTR [ecx+4], eax
	mov	edx, DWORD PTR $T3[ebp]
	mov	DWORD PTR tv74[ebp], edx
	jmp	SHORT $LN4@construct
$LN3@construct:
	mov	DWORD PTR tv74[ebp], 0
$LN4@construct:
	mov	eax, DWORD PTR tv74[ebp]
	mov	DWORD PTR $T2[ebp], eax
	mov	DWORD PTR __$EHRec$[ebp+8], -1
	mov	ecx, DWORD PTR __$EHRec$[ebp]
	mov	DWORD PTR fs:0, ecx
	pop	ecx
	pop	edi
	pop	esi
	pop	ebx
	add	esp, 244				; 000000f4H
	cmp	ebp, esp
	call	__RTC_CheckEsp
	mov	esp, ebp
	pop	ebp
	ret	8
_TEXT	ENDS
;	COMDAT text$x
text$x	SEGMENT
__unwindfunclet$??$construct@U_Container_proxy@std@@U12@@?$allocator@U_Container_proxy@std@@@std@@QAEXPAU_Container_proxy@1@$$QAU21@@Z$0:
	mov	eax, DWORD PTR __Ptr$[ebp]
	push	eax
	mov	eax, DWORD PTR $T3[ebp]
	push	eax
	call	??3@YAXPAX0@Z				; operator delete
	add	esp, 8
	ret	0
__ehhandler$??$construct@U_Container_proxy@std@@U12@@?$allocator@U_Container_proxy@std@@@std@@QAEXPAU_Container_proxy@1@$$QAU21@@Z:
	mov	edx, DWORD PTR [esp+8]
	lea	eax, DWORD PTR [edx+12]
	mov	ecx, DWORD PTR [edx-248]
	xor	ecx, eax
	call	@__security_check_cookie@4
	mov	eax, OFFSET __ehfuncinfo$??$construct@U_Container_proxy@std@@U12@@?$allocator@U_Container_proxy@std@@@std@@QAEXPAU_Container_proxy@1@$$QAU21@@Z
	jmp	___CxxFrameHandler3
text$x	ENDS
??$construct@U_Container_proxy@std@@U12@@?$allocator@U_Container_proxy@std@@@std@@QAEXPAU_Container_proxy@1@$$QAU21@@Z ENDP ; std::allocator<std::_Container_proxy>::construct<std::_Container_proxy,std::_Container_proxy>
; Function compile flags: /Odtp /RTCsu /ZI
; File c:\program files (x86)\microsoft visual studio 11.0\vc\include\xmemory0
;	COMDAT ?allocate@?$allocator@U_Container_proxy@std@@@std@@QAEPAU_Container_proxy@2@I@Z
_TEXT	SEGMENT
_this$ = -8						; size = 4
__Count$ = 8						; size = 4
?allocate@?$allocator@U_Container_proxy@std@@@std@@QAEPAU_Container_proxy@2@I@Z PROC ; std::allocator<std::_Container_proxy>::allocate, COMDAT
; _this$ = ecx

; 590  : 		{	// allocate array of _Count elements

	push	ebp
	mov	ebp, esp
	sub	esp, 204				; 000000ccH
	push	ebx
	push	esi
	push	edi
	push	ecx
	lea	edi, DWORD PTR [ebp-204]
	mov	ecx, 51					; 00000033H
	mov	eax, -858993460				; ccccccccH
	rep stosd
	pop	ecx
	mov	DWORD PTR _this$[ebp], ecx

; 591  : 		return (_Allocate(_Count, (pointer)0));

	push	0
	mov	eax, DWORD PTR __Count$[ebp]
	push	eax
	call	??$_Allocate@U_Container_proxy@std@@@std@@YAPAU_Container_proxy@0@IPAU10@@Z ; std::_Allocate<std::_Container_proxy>
	add	esp, 8

; 592  : 		}

	pop	edi
	pop	esi
	pop	ebx
	add	esp, 204				; 000000ccH
	cmp	ebp, esp
	call	__RTC_CheckEsp
	mov	esp, ebp
	pop	ebp
	ret	4
?allocate@?$allocator@U_Container_proxy@std@@@std@@QAEPAU_Container_proxy@2@I@Z ENDP ; std::allocator<std::_Container_proxy>::allocate
_TEXT	ENDS
; Function compile flags: /Odtp /RTCsu /ZI
; File c:\program files (x86)\microsoft visual studio 11.0\vc\include\xmemory0
;	COMDAT ?deallocate@?$allocator@U_Container_proxy@std@@@std@@QAEXPAU_Container_proxy@2@I@Z
_TEXT	SEGMENT
_this$ = -8						; size = 4
__Ptr$ = 8						; size = 4
___formal$ = 12						; size = 4
?deallocate@?$allocator@U_Container_proxy@std@@@std@@QAEXPAU_Container_proxy@2@I@Z PROC ; std::allocator<std::_Container_proxy>::deallocate, COMDAT
; _this$ = ecx

; 585  : 		{	// deallocate object at _Ptr, ignore size

	push	ebp
	mov	ebp, esp
	sub	esp, 204				; 000000ccH
	push	ebx
	push	esi
	push	edi
	push	ecx
	lea	edi, DWORD PTR [ebp-204]
	mov	ecx, 51					; 00000033H
	mov	eax, -858993460				; ccccccccH
	rep stosd
	pop	ecx
	mov	DWORD PTR _this$[ebp], ecx

; 586  : 		::operator delete(_Ptr);

	mov	eax, DWORD PTR __Ptr$[ebp]
	push	eax
	call	??3@YAXPAX@Z				; operator delete
	add	esp, 4

; 587  : 		}

	pop	edi
	pop	esi
	pop	ebx
	add	esp, 204				; 000000ccH
	cmp	ebp, esp
	call	__RTC_CheckEsp
	mov	esp, ebp
	pop	ebp
	ret	8
?deallocate@?$allocator@U_Container_proxy@std@@@std@@QAEXPAU_Container_proxy@2@I@Z ENDP ; std::allocator<std::_Container_proxy>::deallocate
_TEXT	ENDS
; Function compile flags: /Odtp /RTCsu /ZI
; File c:\program files (x86)\microsoft visual studio 11.0\vc\include\xmemory0
;	COMDAT ??0?$allocator@U_Container_proxy@std@@@std@@QAE@XZ
_TEXT	SEGMENT
_this$ = -8						; size = 4
??0?$allocator@U_Container_proxy@std@@@std@@QAE@XZ PROC	; std::allocator<std::_Container_proxy>::allocator<std::_Container_proxy>, COMDAT
; _this$ = ecx

; 565  : 	allocator() _THROW0()

	push	ebp
	mov	ebp, esp
	sub	esp, 204				; 000000ccH
	push	ebx
	push	esi
	push	edi
	push	ecx
	lea	edi, DWORD PTR [ebp-204]
	mov	ecx, 51					; 00000033H
	mov	eax, -858993460				; ccccccccH
	rep stosd
	pop	ecx
	mov	DWORD PTR _this$[ebp], ecx

; 566  : 		{	// construct default allocator (do nothing)
; 567  : 		}

	mov	eax, DWORD PTR _this$[ebp]
	pop	edi
	pop	esi
	pop	ebx
	mov	esp, ebp
	pop	ebp
	ret	0
??0?$allocator@U_Container_proxy@std@@@std@@QAE@XZ ENDP	; std::allocator<std::_Container_proxy>::allocator<std::_Container_proxy>
_TEXT	ENDS
; Function compile flags: /Odtp /RTCsu /ZI
; File c:\program files (x86)\microsoft visual studio 11.0\vc\atlmfc\include\atlconv.h
;	COMDAT ??$AtlConvAllocMemory@_W@ATL@@YAXPAPA_WHPA_WH@Z
_TEXT	SEGMENT
tv129 = -244						; size = 4
tv81 = -244						; size = 4
tv65 = -244						; size = 4
_ppReallocBuf$1 = -44					; size = 4
___atl_condVal$2 = -32					; size = 4
___atl_condVal$3 = -20					; size = 4
___atl_condVal$4 = -8					; size = 4
_ppBuff$ = 8						; size = 4
_nLength$ = 12						; size = 4
_pszFixedBuffer$ = 16					; size = 4
_nFixedBufferLength$ = 20				; size = 4
??$AtlConvAllocMemory@_W@ATL@@YAXPAPA_WHPA_WH@Z PROC	; ATL::AtlConvAllocMemory<wchar_t>, COMDAT

; 118  : {

	push	ebp
	mov	ebp, esp
	sub	esp, 244				; 000000f4H
	push	ebx
	push	esi
	push	edi
	lea	edi, DWORD PTR [ebp-244]
	mov	ecx, 61					; 0000003dH
	mov	eax, -858993460				; ccccccccH
	rep stosd
$LN29@AtlConvAll:

; 119  : 	ATLENSURE_THROW(ppBuff != NULL, E_INVALIDARG);

	cmp	DWORD PTR _ppBuff$[ebp], 0
	je	SHORT $LN32@AtlConvAll
	mov	DWORD PTR tv65[ebp], 1
	jmp	SHORT $LN33@AtlConvAll
$LN32@AtlConvAll:
	mov	DWORD PTR tv65[ebp], 0
$LN33@AtlConvAll:
	mov	eax, DWORD PTR tv65[ebp]
	mov	DWORD PTR ___atl_condVal$4[ebp], eax
$LN26@AtlConvAll:
	cmp	DWORD PTR ___atl_condVal$4[ebp], 0
	jne	SHORT $LN25@AtlConvAll
	push	OFFSET ??_C@_1BM@GBBOFEAE@?$AA_?$AA_?$AAa?$AAt?$AAl?$AA_?$AAc?$AAo?$AAn?$AAd?$AAV?$AAa?$AAl?$AA?$AA@
	push	OFFSET ??_C@_15GANGMFKL@?$AA?$CF?$AAs?$AA?$AA@
	push	0
	push	119					; 00000077H
	push	OFFSET ??_C@_1KA@FFOMAGAF@?$AAc?$AA?3?$AA?2?$AAp?$AAr?$AAo?$AAg?$AAr?$AAa?$AAm?$AA?5?$AAf?$AAi?$AAl?$AAe?$AAs?$AA?5?$AA?$CI?$AAx?$AA8?$AA6?$AA?$CJ?$AA?2?$AAm?$AAi?$AAc?$AAr?$AAo?$AAs?$AAo?$AAf?$AAt@
	push	2
	call	__CrtDbgReportW
	add	esp, 24					; 00000018H
	cmp	eax, 1
	jne	SHORT $LN25@AtlConvAll
	int	3
$LN25@AtlConvAll:
	xor	eax, eax
	jne	SHORT $LN26@AtlConvAll
	cmp	DWORD PTR ___atl_condVal$4[ebp], 0
	jne	SHORT $LN28@AtlConvAll
	push	-2147024809				; 80070057H
	call	?AtlThrowImpl@ATL@@YGXJ@Z		; ATL::AtlThrowImpl
$LN28@AtlConvAll:
	xor	eax, eax
	jne	SHORT $LN29@AtlConvAll
$LN22@AtlConvAll:

; 120  : 	ATLENSURE_THROW(nLength >= 0, E_INVALIDARG);

	cmp	DWORD PTR _nLength$[ebp], 0
	jl	SHORT $LN35@AtlConvAll
	mov	DWORD PTR tv81[ebp], 1
	jmp	SHORT $LN36@AtlConvAll
$LN35@AtlConvAll:
	mov	DWORD PTR tv81[ebp], 0
$LN36@AtlConvAll:
	mov	eax, DWORD PTR tv81[ebp]
	mov	DWORD PTR ___atl_condVal$3[ebp], eax
$LN19@AtlConvAll:
	cmp	DWORD PTR ___atl_condVal$3[ebp], 0
	jne	SHORT $LN18@AtlConvAll
	push	OFFSET ??_C@_1BM@GBBOFEAE@?$AA_?$AA_?$AAa?$AAt?$AAl?$AA_?$AAc?$AAo?$AAn?$AAd?$AAV?$AAa?$AAl?$AA?$AA@
	push	OFFSET ??_C@_15GANGMFKL@?$AA?$CF?$AAs?$AA?$AA@
	push	0
	push	120					; 00000078H
	push	OFFSET ??_C@_1KA@FFOMAGAF@?$AAc?$AA?3?$AA?2?$AAp?$AAr?$AAo?$AAg?$AAr?$AAa?$AAm?$AA?5?$AAf?$AAi?$AAl?$AAe?$AAs?$AA?5?$AA?$CI?$AAx?$AA8?$AA6?$AA?$CJ?$AA?2?$AAm?$AAi?$AAc?$AAr?$AAo?$AAs?$AAo?$AAf?$AAt@
	push	2
	call	__CrtDbgReportW
	add	esp, 24					; 00000018H
	cmp	eax, 1
	jne	SHORT $LN18@AtlConvAll
	int	3
$LN18@AtlConvAll:
	xor	eax, eax
	jne	SHORT $LN19@AtlConvAll
	cmp	DWORD PTR ___atl_condVal$3[ebp], 0
	jne	SHORT $LN21@AtlConvAll
	push	-2147024809				; 80070057H
	call	?AtlThrowImpl@ATL@@YGXJ@Z		; ATL::AtlThrowImpl
$LN21@AtlConvAll:
	xor	eax, eax
	jne	SHORT $LN22@AtlConvAll
$LN15@AtlConvAll:

; 121  : 	ATLENSURE_THROW(pszFixedBuffer != NULL, E_INVALIDARG);

	cmp	DWORD PTR _pszFixedBuffer$[ebp], 0
	je	SHORT $LN38@AtlConvAll
	mov	DWORD PTR tv129[ebp], 1
	jmp	SHORT $LN39@AtlConvAll
$LN38@AtlConvAll:
	mov	DWORD PTR tv129[ebp], 0
$LN39@AtlConvAll:
	mov	eax, DWORD PTR tv129[ebp]
	mov	DWORD PTR ___atl_condVal$2[ebp], eax
$LN12@AtlConvAll:
	cmp	DWORD PTR ___atl_condVal$2[ebp], 0
	jne	SHORT $LN11@AtlConvAll
	push	OFFSET ??_C@_1BM@GBBOFEAE@?$AA_?$AA_?$AAa?$AAt?$AAl?$AA_?$AAc?$AAo?$AAn?$AAd?$AAV?$AAa?$AAl?$AA?$AA@
	push	OFFSET ??_C@_15GANGMFKL@?$AA?$CF?$AAs?$AA?$AA@
	push	0
	push	121					; 00000079H
	push	OFFSET ??_C@_1KA@FFOMAGAF@?$AAc?$AA?3?$AA?2?$AAp?$AAr?$AAo?$AAg?$AAr?$AAa?$AAm?$AA?5?$AAf?$AAi?$AAl?$AAe?$AAs?$AA?5?$AA?$CI?$AAx?$AA8?$AA6?$AA?$CJ?$AA?2?$AAm?$AAi?$AAc?$AAr?$AAo?$AAs?$AAo?$AAf?$AAt@
	push	2
	call	__CrtDbgReportW
	add	esp, 24					; 00000018H
	cmp	eax, 1
	jne	SHORT $LN11@AtlConvAll
	int	3
$LN11@AtlConvAll:
	xor	eax, eax
	jne	SHORT $LN12@AtlConvAll
	cmp	DWORD PTR ___atl_condVal$2[ebp], 0
	jne	SHORT $LN14@AtlConvAll
	push	-2147024809				; 80070057H
	call	?AtlThrowImpl@ATL@@YGXJ@Z		; ATL::AtlThrowImpl
$LN14@AtlConvAll:
	xor	eax, eax
	jne	SHORT $LN15@AtlConvAll

; 122  : 
; 123  : 	//if buffer malloced, try to realloc.
; 124  : 	if (*ppBuff != pszFixedBuffer)

	mov	eax, DWORD PTR _ppBuff$[ebp]
	mov	ecx, DWORD PTR [eax]
	cmp	ecx, DWORD PTR _pszFixedBuffer$[ebp]
	je	SHORT $LN8@AtlConvAll

; 125  : 	{
; 126  : 		if( nLength > nFixedBufferLength )

	mov	eax, DWORD PTR _nLength$[ebp]
	cmp	eax, DWORD PTR _nFixedBufferLength$[ebp]
	jle	SHORT $LN7@AtlConvAll

; 127  : 		{
; 128  : 			_CharType* ppReallocBuf = static_cast< _CharType* >( _recalloc(*ppBuff, nLength,sizeof( _CharType ) ) );

	push	2
	mov	eax, DWORD PTR _nLength$[ebp]
	push	eax
	mov	ecx, DWORD PTR _ppBuff$[ebp]
	mov	edx, DWORD PTR [ecx]
	push	edx
	call	__recalloc
	add	esp, 12					; 0000000cH
	mov	DWORD PTR _ppReallocBuf$1[ebp], eax

; 129  : 			if (ppReallocBuf == NULL) 

	cmp	DWORD PTR _ppReallocBuf$1[ebp], 0
	jne	SHORT $LN6@AtlConvAll

; 130  : 			{
; 131  : 				AtlThrow( E_OUTOFMEMORY );

	push	-2147024882				; 8007000eH
	call	?AtlThrowImpl@ATL@@YGXJ@Z		; ATL::AtlThrowImpl
$LN6@AtlConvAll:

; 132  : 			}
; 133  : 			*ppBuff = ppReallocBuf;

	mov	eax, DWORD PTR _ppBuff$[ebp]
	mov	ecx, DWORD PTR _ppReallocBuf$1[ebp]
	mov	DWORD PTR [eax], ecx

; 134  : 		} else

	jmp	SHORT $LN5@AtlConvAll
$LN7@AtlConvAll:

; 135  : 		{
; 136  : 			free(*ppBuff);

	mov	eax, DWORD PTR _ppBuff$[ebp]
	mov	ecx, DWORD PTR [eax]
	push	ecx
	call	_free
	add	esp, 4

; 137  : 			*ppBuff=pszFixedBuffer;

	mov	eax, DWORD PTR _ppBuff$[ebp]
	mov	ecx, DWORD PTR _pszFixedBuffer$[ebp]
	mov	DWORD PTR [eax], ecx
$LN5@AtlConvAll:

; 138  : 		}
; 139  : 
; 140  : 	} else //Buffer is not currently malloced.

	jmp	SHORT $LN4@AtlConvAll
$LN8@AtlConvAll:

; 141  : 	{
; 142  : 		if( nLength > nFixedBufferLength )

	mov	eax, DWORD PTR _nLength$[ebp]
	cmp	eax, DWORD PTR _nFixedBufferLength$[ebp]
	jle	SHORT $LN3@AtlConvAll

; 143  : 		{
; 144  : 			*ppBuff = static_cast< _CharType* >( calloc(nLength,sizeof( _CharType ) ) );

	push	2
	mov	eax, DWORD PTR _nLength$[ebp]
	push	eax
	call	_calloc
	add	esp, 8
	mov	ecx, DWORD PTR _ppBuff$[ebp]
	mov	DWORD PTR [ecx], eax

; 145  : 		} else

	jmp	SHORT $LN4@AtlConvAll
$LN3@AtlConvAll:

; 146  : 		{			
; 147  : 			*ppBuff=pszFixedBuffer;

	mov	eax, DWORD PTR _ppBuff$[ebp]
	mov	ecx, DWORD PTR _pszFixedBuffer$[ebp]
	mov	DWORD PTR [eax], ecx
$LN4@AtlConvAll:

; 148  : 		}
; 149  : 	}
; 150  : 
; 151  : 	if (*ppBuff == NULL)

	mov	eax, DWORD PTR _ppBuff$[ebp]
	cmp	DWORD PTR [eax], 0
	jne	SHORT $LN31@AtlConvAll

; 152  : 	{
; 153  : 		AtlThrow( E_OUTOFMEMORY );

	push	-2147024882				; 8007000eH
	call	?AtlThrowImpl@ATL@@YGXJ@Z		; ATL::AtlThrowImpl
$LN31@AtlConvAll:

; 154  : 	}
; 155  : }

	pop	edi
	pop	esi
	pop	ebx
	add	esp, 244				; 000000f4H
	cmp	ebp, esp
	call	__RTC_CheckEsp
	mov	esp, ebp
	pop	ebp
	ret	0
??$AtlConvAllocMemory@_W@ATL@@YAXPAPA_WHPA_WH@Z ENDP	; ATL::AtlConvAllocMemory<wchar_t>
_TEXT	ENDS
; Function compile flags: /Odtp /RTCsu /ZI
; File c:\program files (x86)\microsoft visual studio 11.0\vc\include\xstddef
;	COMDAT ??$addressof@D@std@@YAPADAAD@Z
_TEXT	SEGMENT
__Val$ = 8						; size = 4
??$addressof@D@std@@YAPADAAD@Z PROC			; std::addressof<char>, COMDAT

; 85   : 	{	// return address of _Val

	push	ebp
	mov	ebp, esp
	sub	esp, 192				; 000000c0H
	push	ebx
	push	esi
	push	edi
	lea	edi, DWORD PTR [ebp-192]
	mov	ecx, 48					; 00000030H
	mov	eax, -858993460				; ccccccccH
	rep stosd

; 86   : 	return (reinterpret_cast<_Ty *>(
; 87   : 		(&const_cast<char&>(
; 88   : 		reinterpret_cast<const volatile char&>(_Val)))));

	mov	eax, DWORD PTR __Val$[ebp]

; 89   : 	}

	pop	edi
	pop	esi
	pop	ebx
	mov	esp, ebp
	pop	ebp
	ret	0
??$addressof@D@std@@YAPADAAD@Z ENDP			; std::addressof<char>
_TEXT	ENDS
; Function compile flags: /Odtp /RTCsu /ZI
; File c:\program files (x86)\microsoft visual studio 11.0\vc\include\xmemory0
;	COMDAT ??$destroy@PAD@?$_Wrap_alloc@V?$allocator@D@std@@@std@@QAEXPAPAD@Z
_TEXT	SEGMENT
_this$ = -8						; size = 4
__Ptr$ = 8						; size = 4
??$destroy@PAD@?$_Wrap_alloc@V?$allocator@D@std@@@std@@QAEXPAPAD@Z PROC ; std::_Wrap_alloc<std::allocator<char> >::destroy<char *>, COMDAT
; _this$ = ecx

; 907  : 		void destroy(_Ty *_Ptr)

	push	ebp
	mov	ebp, esp
	sub	esp, 204				; 000000ccH
	push	ebx
	push	esi
	push	edi
	push	ecx
	lea	edi, DWORD PTR [ebp-204]
	mov	ecx, 51					; 00000033H
	mov	eax, -858993460				; ccccccccH
	rep stosd
	pop	ecx
	mov	DWORD PTR _this$[ebp], ecx

; 908  : 		{	// destroy object at _Ptr
; 909  : 		_Mytraits::destroy(*this, _Ptr);

	mov	eax, DWORD PTR __Ptr$[ebp]
	push	eax
	mov	ecx, DWORD PTR _this$[ebp]
	push	ecx
	call	??$destroy@PAD@?$allocator_traits@V?$allocator@D@std@@@std@@SAXAAV?$allocator@D@1@PAPAD@Z ; std::allocator_traits<std::allocator<char> >::destroy<char *>
	add	esp, 8

; 910  : 		}

	pop	edi
	pop	esi
	pop	ebx
	add	esp, 204				; 000000ccH
	cmp	ebp, esp
	call	__RTC_CheckEsp
	mov	esp, ebp
	pop	ebp
	ret	4
??$destroy@PAD@?$_Wrap_alloc@V?$allocator@D@std@@@std@@QAEXPAPAD@Z ENDP ; std::_Wrap_alloc<std::allocator<char> >::destroy<char *>
_TEXT	ENDS
; Function compile flags: /Odtp /RTCsu /ZI
; File c:\program files (x86)\microsoft visual studio 11.0\vc\include\xmemory0
;	COMDAT ??$construct@PADAAPAD@?$_Wrap_alloc@V?$allocator@D@std@@@std@@QAEXPAPADAAPAD@Z
_TEXT	SEGMENT
_this$ = -8						; size = 4
__Ptr$ = 8						; size = 4
__V0$ = 12						; size = 4
??$construct@PADAAPAD@?$_Wrap_alloc@V?$allocator@D@std@@@std@@QAEXPAPADAAPAD@Z PROC ; std::_Wrap_alloc<std::allocator<char> >::construct<char *,char * &>, COMDAT
; _this$ = ecx

; 903  : _VARIADIC_EXPAND_0X(_WRAP_ALLOC_CONSTRUCT, , , , )

	push	ebp
	mov	ebp, esp
	sub	esp, 204				; 000000ccH
	push	ebx
	push	esi
	push	edi
	push	ecx
	lea	edi, DWORD PTR [ebp-204]
	mov	ecx, 51					; 00000033H
	mov	eax, -858993460				; ccccccccH
	rep stosd
	pop	ecx
	mov	DWORD PTR _this$[ebp], ecx
	mov	eax, DWORD PTR __V0$[ebp]
	push	eax
	call	??$forward@AAPAD@std@@YAAAPADAAPAD@Z	; std::forward<char * &>
	add	esp, 4
	push	eax
	mov	ecx, DWORD PTR __Ptr$[ebp]
	push	ecx
	mov	edx, DWORD PTR _this$[ebp]
	push	edx
	call	??$construct@PADAAPAD@?$allocator_traits@V?$allocator@D@std@@@std@@SAXAAV?$allocator@D@1@PAPADAAPAD@Z ; std::allocator_traits<std::allocator<char> >::construct<char *,char * &>
	add	esp, 12					; 0000000cH
	pop	edi
	pop	esi
	pop	ebx
	add	esp, 204				; 000000ccH
	cmp	ebp, esp
	call	__RTC_CheckEsp
	mov	esp, ebp
	pop	ebp
	ret	8
??$construct@PADAAPAD@?$_Wrap_alloc@V?$allocator@D@std@@@std@@QAEXPAPADAAPAD@Z ENDP ; std::_Wrap_alloc<std::allocator<char> >::construct<char *,char * &>
_TEXT	ENDS
; Function compile flags: /Odtp /RTCsu /ZI
; File c:\program files (x86)\microsoft visual studio 11.0\vc\atlmfc\include\atlconv.h
;	COMDAT ??$AtlConvFreeMemory@_W@ATL@@YAXPA_W0H@Z
_TEXT	SEGMENT
_pBuff$ = 8						; size = 4
_pszFixedBuffer$ = 12					; size = 4
_nFixedBufferLength$ = 16				; size = 4
??$AtlConvFreeMemory@_W@ATL@@YAXPA_W0H@Z PROC		; ATL::AtlConvFreeMemory<wchar_t>, COMDAT

; 162  : {

	push	ebp
	mov	ebp, esp
	sub	esp, 192				; 000000c0H
	push	ebx
	push	esi
	push	edi
	lea	edi, DWORD PTR [ebp-192]
	mov	ecx, 48					; 00000030H
	mov	eax, -858993460				; ccccccccH
	rep stosd

; 163  : 	(nFixedBufferLength);
; 164  : 	if( pBuff != pszFixedBuffer )

	mov	eax, DWORD PTR _pBuff$[ebp]
	cmp	eax, DWORD PTR _pszFixedBuffer$[ebp]
	je	SHORT $LN2@AtlConvFre

; 165  : 	{
; 166  : 		free( pBuff );

	mov	eax, DWORD PTR _pBuff$[ebp]
	push	eax
	call	_free
	add	esp, 4

; 167  : 	} 	
; 168  : #ifdef _DEBUG
; 169  : 	else

	jmp	SHORT $LN3@AtlConvFre
$LN2@AtlConvFre:

; 170  : 	{		
; 171  : 		memset(pszFixedBuffer,ATLCONV_DEADLAND_FILL,nFixedBufferLength*sizeof(_CharType));

	mov	eax, DWORD PTR _nFixedBufferLength$[ebp]
	shl	eax, 1
	push	eax
	push	254					; 000000feH
	mov	ecx, DWORD PTR _pszFixedBuffer$[ebp]
	push	ecx
	call	_memset
	add	esp, 12					; 0000000cH
$LN3@AtlConvFre:

; 172  : 	}
; 173  : #endif
; 174  : }

	pop	edi
	pop	esi
	pop	ebx
	add	esp, 192				; 000000c0H
	cmp	ebp, esp
	call	__RTC_CheckEsp
	mov	esp, ebp
	pop	ebp
	ret	0
??$AtlConvFreeMemory@_W@ATL@@YAXPA_W0H@Z ENDP		; ATL::AtlConvFreeMemory<wchar_t>
_TEXT	ENDS
; Function compile flags: /Odtp /RTCsu /ZI
; File c:\program files (x86)\microsoft visual studio 11.0\vc\atlmfc\include\atlconv.h
;	COMDAT ?Init@?$CA2WEX@$0IA@@ATL@@AAEXPBDI@Z
_TEXT	SEGMENT
tv142 = -244						; size = 4
tv84 = -244						; size = 4
_bFailed$ = -44						; size = 4
_nLengthW$ = -32					; size = 4
_nLengthA$ = -20					; size = 4
_this$ = -8						; size = 4
_psz$ = 8						; size = 4
_nCodePage$ = 12					; size = 4
?Init@?$CA2WEX@$0IA@@ATL@@AAEXPBDI@Z PROC		; ATL::CA2WEX<128>::Init, COMDAT
; _this$ = ecx

; 375  : 	{

	push	ebp
	mov	ebp, esp
	sub	esp, 244				; 000000f4H
	push	ebx
	push	esi
	push	edi
	push	ecx
	lea	edi, DWORD PTR [ebp-244]
	mov	ecx, 61					; 0000003dH
	mov	eax, -858993460				; ccccccccH
	rep stosd
	pop	ecx
	mov	DWORD PTR _this$[ebp], ecx

; 376  : 		if (psz == NULL)

	cmp	DWORD PTR _psz$[ebp], 0
	jne	SHORT $LN4@Init

; 377  : 		{
; 378  : 			m_psz = NULL;

	mov	eax, DWORD PTR _this$[ebp]
	mov	DWORD PTR [eax], 0

; 379  : 			return;

	jmp	$LN6@Init
$LN4@Init:

; 380  : 		}
; 381  : 		int nLengthA = static_cast<int>(strlen( psz ))+1;

	mov	eax, DWORD PTR _psz$[ebp]
	push	eax
	call	_strlen
	add	esp, 4
	add	eax, 1
	mov	DWORD PTR _nLengthA$[ebp], eax

; 382  : 		int nLengthW = nLengthA;

	mov	eax, DWORD PTR _nLengthA$[ebp]
	mov	DWORD PTR _nLengthW$[ebp], eax

; 383  : 
; 384  : 		AtlConvAllocMemory(&m_psz,nLengthW,m_szBuffer,t_nBufferLength);

	push	128					; 00000080H
	mov	eax, DWORD PTR _this$[ebp]
	add	eax, 4
	push	eax
	mov	ecx, DWORD PTR _nLengthW$[ebp]
	push	ecx
	mov	edx, DWORD PTR _this$[ebp]
	push	edx
	call	??$AtlConvAllocMemory@_W@ATL@@YAXPAPA_WHPA_WH@Z ; ATL::AtlConvAllocMemory<wchar_t>
	add	esp, 16					; 00000010H

; 385  : 
; 386  : 		BOOL bFailed=(0 == ::MultiByteToWideChar( nCodePage, 0, psz, nLengthA, m_psz, nLengthW ) );

	mov	esi, esp
	mov	eax, DWORD PTR _nLengthW$[ebp]
	push	eax
	mov	ecx, DWORD PTR _this$[ebp]
	mov	edx, DWORD PTR [ecx]
	push	edx
	mov	eax, DWORD PTR _nLengthA$[ebp]
	push	eax
	mov	ecx, DWORD PTR _psz$[ebp]
	push	ecx
	push	0
	mov	edx, DWORD PTR _nCodePage$[ebp]
	push	edx
	call	DWORD PTR __imp__MultiByteToWideChar@24
	cmp	esi, esp
	call	__RTC_CheckEsp
	test	eax, eax
	jne	SHORT $LN7@Init
	mov	DWORD PTR tv84[ebp], 1
	jmp	SHORT $LN8@Init
$LN7@Init:
	mov	DWORD PTR tv84[ebp], 0
$LN8@Init:
	mov	eax, DWORD PTR tv84[ebp]
	mov	DWORD PTR _bFailed$[ebp], eax

; 387  : 		if (bFailed)

	cmp	DWORD PTR _bFailed$[ebp], 0
	je	$LN3@Init

; 388  : 		{
; 389  : 			if (GetLastError()==ERROR_INSUFFICIENT_BUFFER)

	mov	esi, esp
	call	DWORD PTR __imp__GetLastError@0
	cmp	esi, esp
	call	__RTC_CheckEsp
	cmp	eax, 122				; 0000007aH
	jne	$LN3@Init

; 390  : 			{
; 391  : 				nLengthW = ::MultiByteToWideChar( nCodePage, 0, psz, nLengthA, NULL, 0);

	mov	esi, esp
	push	0
	push	0
	mov	eax, DWORD PTR _nLengthA$[ebp]
	push	eax
	mov	ecx, DWORD PTR _psz$[ebp]
	push	ecx
	push	0
	mov	edx, DWORD PTR _nCodePage$[ebp]
	push	edx
	call	DWORD PTR __imp__MultiByteToWideChar@24
	cmp	esi, esp
	call	__RTC_CheckEsp
	mov	DWORD PTR _nLengthW$[ebp], eax

; 392  : 				AtlConvAllocMemory(&m_psz,nLengthW,m_szBuffer,t_nBufferLength);

	push	128					; 00000080H
	mov	eax, DWORD PTR _this$[ebp]
	add	eax, 4
	push	eax
	mov	ecx, DWORD PTR _nLengthW$[ebp]
	push	ecx
	mov	edx, DWORD PTR _this$[ebp]
	push	edx
	call	??$AtlConvAllocMemory@_W@ATL@@YAXPAPA_WHPA_WH@Z ; ATL::AtlConvAllocMemory<wchar_t>
	add	esp, 16					; 00000010H

; 393  : 				bFailed=(0 == ::MultiByteToWideChar( nCodePage, 0, psz, nLengthA, m_psz, nLengthW ) );

	mov	esi, esp
	mov	eax, DWORD PTR _nLengthW$[ebp]
	push	eax
	mov	ecx, DWORD PTR _this$[ebp]
	mov	edx, DWORD PTR [ecx]
	push	edx
	mov	eax, DWORD PTR _nLengthA$[ebp]
	push	eax
	mov	ecx, DWORD PTR _psz$[ebp]
	push	ecx
	push	0
	mov	edx, DWORD PTR _nCodePage$[ebp]
	push	edx
	call	DWORD PTR __imp__MultiByteToWideChar@24
	cmp	esi, esp
	call	__RTC_CheckEsp
	test	eax, eax
	jne	SHORT $LN9@Init
	mov	DWORD PTR tv142[ebp], 1
	jmp	SHORT $LN10@Init
$LN9@Init:
	mov	DWORD PTR tv142[ebp], 0
$LN10@Init:
	mov	eax, DWORD PTR tv142[ebp]
	mov	DWORD PTR _bFailed$[ebp], eax
$LN3@Init:

; 394  : 			}			
; 395  : 		}
; 396  : 		if (bFailed)

	cmp	DWORD PTR _bFailed$[ebp], 0
	je	SHORT $LN6@Init

; 397  : 		{
; 398  : 			AtlThrowLastWin32();

	call	?AtlThrowLastWin32@ATL@@YGXXZ		; ATL::AtlThrowLastWin32
$LN6@Init:

; 399  : 		}		
; 400  : 	}

	pop	edi
	pop	esi
	pop	ebx
	add	esp, 244				; 000000f4H
	cmp	ebp, esp
	call	__RTC_CheckEsp
	mov	esp, ebp
	pop	ebp
	ret	8
?Init@?$CA2WEX@$0IA@@ATL@@AAEXPBDI@Z ENDP		; ATL::CA2WEX<128>::Init
_TEXT	ENDS
; Function compile flags: /Odtp /RTCsu /ZI
; File c:\program files (x86)\microsoft visual studio 11.0\vc\atlmfc\include\atlconv.h
;	COMDAT ??B?$CA2WEX@$0IA@@ATL@@QBEPA_WXZ
_TEXT	SEGMENT
_this$ = -8						; size = 4
??B?$CA2WEX@$0IA@@ATL@@QBEPA_WXZ PROC			; ATL::CA2WEX<128>::operator wchar_t *, COMDAT
; _this$ = ecx

; 367  : 	{

	push	ebp
	mov	ebp, esp
	sub	esp, 204				; 000000ccH
	push	ebx
	push	esi
	push	edi
	push	ecx
	lea	edi, DWORD PTR [ebp-204]
	mov	ecx, 51					; 00000033H
	mov	eax, -858993460				; ccccccccH
	rep stosd
	pop	ecx
	mov	DWORD PTR _this$[ebp], ecx

; 368  : 		return( m_psz );

	mov	eax, DWORD PTR _this$[ebp]
	mov	eax, DWORD PTR [eax]

; 369  : 	}

	pop	edi
	pop	esi
	pop	ebx
	mov	esp, ebp
	pop	ebp
	ret	0
??B?$CA2WEX@$0IA@@ATL@@QBEPA_WXZ ENDP			; ATL::CA2WEX<128>::operator wchar_t *
_TEXT	ENDS
; Function compile flags: /Odtp /RTCsu /ZI
; File c:\program files (x86)\microsoft visual studio 11.0\vc\atlmfc\include\atlconv.h
;	COMDAT ??1?$CA2WEX@$0IA@@ATL@@QAE@XZ
_TEXT	SEGMENT
_this$ = -8						; size = 4
??1?$CA2WEX@$0IA@@ATL@@QAE@XZ PROC			; ATL::CA2WEX<128>::~CA2WEX<128>, COMDAT
; _this$ = ecx

; 362  : 	{

	push	ebp
	mov	ebp, esp
	sub	esp, 204				; 000000ccH
	push	ebx
	push	esi
	push	edi
	push	ecx
	lea	edi, DWORD PTR [ebp-204]
	mov	ecx, 51					; 00000033H
	mov	eax, -858993460				; ccccccccH
	rep stosd
	pop	ecx
	mov	DWORD PTR _this$[ebp], ecx

; 363  : 		AtlConvFreeMemory(m_psz,m_szBuffer,t_nBufferLength);

	push	128					; 00000080H
	mov	eax, DWORD PTR _this$[ebp]
	add	eax, 4
	push	eax
	mov	ecx, DWORD PTR _this$[ebp]
	mov	edx, DWORD PTR [ecx]
	push	edx
	call	??$AtlConvFreeMemory@_W@ATL@@YAXPA_W0H@Z ; ATL::AtlConvFreeMemory<wchar_t>
	add	esp, 12					; 0000000cH

; 364  : 	}

	pop	edi
	pop	esi
	pop	ebx
	add	esp, 204				; 000000ccH
	cmp	ebp, esp
	call	__RTC_CheckEsp
	mov	esp, ebp
	pop	ebp
	ret	0
??1?$CA2WEX@$0IA@@ATL@@QAE@XZ ENDP			; ATL::CA2WEX<128>::~CA2WEX<128>
_TEXT	ENDS
; Function compile flags: /Odtp /RTCsu /ZI
; File c:\program files (x86)\microsoft visual studio 11.0\vc\atlmfc\include\atlconv.h
;	COMDAT ??0?$CA2WEX@$0IA@@ATL@@QAE@PBD@Z
_TEXT	SEGMENT
_this$ = -8						; size = 4
_psz$ = 8						; size = 4
??0?$CA2WEX@$0IA@@ATL@@QAE@PBD@Z PROC			; ATL::CA2WEX<128>::CA2WEX<128>, COMDAT
; _this$ = ecx

; 351  : 	{

	push	ebp
	mov	ebp, esp
	sub	esp, 204				; 000000ccH
	push	ebx
	push	esi
	push	edi
	push	ecx
	lea	edi, DWORD PTR [ebp-204]
	mov	ecx, 51					; 00000033H
	mov	eax, -858993460				; ccccccccH
	rep stosd
	pop	ecx
	mov	DWORD PTR _this$[ebp], ecx
	mov	eax, DWORD PTR _this$[ebp]
	add	eax, 4
	mov	ecx, DWORD PTR _this$[ebp]
	mov	DWORD PTR [ecx], eax

; 352  : 		Init( psz, _AtlGetConversionACP() );

	call	?_AtlGetConversionACP@ATL@@YGIXZ	; ATL::_AtlGetConversionACP
	push	eax
	mov	eax, DWORD PTR _psz$[ebp]
	push	eax
	mov	ecx, DWORD PTR _this$[ebp]
	call	?Init@?$CA2WEX@$0IA@@ATL@@AAEXPBDI@Z	; ATL::CA2WEX<128>::Init

; 353  : 	}

	mov	eax, DWORD PTR _this$[ebp]
	pop	edi
	pop	esi
	pop	ebx
	add	esp, 204				; 000000ccH
	cmp	ebp, esp
	call	__RTC_CheckEsp
	mov	esp, ebp
	pop	ebp
	ret	4
??0?$CA2WEX@$0IA@@ATL@@QAE@PBD@Z ENDP			; ATL::CA2WEX<128>::CA2WEX<128>
_TEXT	ENDS
; Function compile flags: /Odtp /RTCsu /ZI
; File c:\users\simon\documents\visual studio 2012\projects\stereoscopic\stereoscopic.cpp
;	COMDAT ?WndProc@@YGJPAUHWND__@@IIJ@Z
_TEXT	SEGMENT
tv64 = -284						; size = 4
_hdc$ = -84						; size = 4
_ps$ = -72						; size = 64
__$ArrayPad$ = -4					; size = 4
_hWnd$ = 8						; size = 4
_message$ = 12						; size = 4
_wParam$ = 16						; size = 4
_lParam$ = 20						; size = 4
?WndProc@@YGJPAUHWND__@@IIJ@Z PROC			; WndProc, COMDAT

; 659  : {

	push	ebp
	mov	ebp, esp
	sub	esp, 284				; 0000011cH
	push	ebx
	push	esi
	push	edi
	lea	edi, DWORD PTR [ebp-284]
	mov	ecx, 71					; 00000047H
	mov	eax, -858993460				; ccccccccH
	rep stosd
	mov	eax, DWORD PTR ___security_cookie
	xor	eax, ebp
	mov	DWORD PTR __$ArrayPad$[ebp], eax

; 660  : 	PAINTSTRUCT ps;
; 661  : 	HDC hdc;
; 662  : 
; 663  : 	switch( message )

	mov	eax, DWORD PTR _message$[ebp]
	mov	DWORD PTR tv64[ebp], eax
	cmp	DWORD PTR tv64[ebp], 256		; 00000100H
	ja	SHORT $LN10@WndProc
	cmp	DWORD PTR tv64[ebp], 256		; 00000100H
	je	SHORT $LN3@WndProc
	cmp	DWORD PTR tv64[ebp], 2
	je	SHORT $LN4@WndProc
	cmp	DWORD PTR tv64[ebp], 15			; 0000000fH
	je	SHORT $LN5@WndProc
	jmp	SHORT $LN1@WndProc
$LN10@WndProc:
	cmp	DWORD PTR tv64[ebp], 257		; 00000101H
	je	SHORT $LN2@WndProc
	jmp	SHORT $LN1@WndProc
$LN5@WndProc:

; 664  : 	{
; 665  : 		case WM_PAINT:
; 666  : 			hdc = BeginPaint( hWnd, &ps );

	mov	esi, esp
	lea	eax, DWORD PTR _ps$[ebp]
	push	eax
	mov	ecx, DWORD PTR _hWnd$[ebp]
	push	ecx
	call	DWORD PTR __imp__BeginPaint@8
	cmp	esi, esp
	call	__RTC_CheckEsp
	mov	DWORD PTR _hdc$[ebp], eax

; 667  : 			EndPaint( hWnd, &ps );

	mov	esi, esp
	lea	eax, DWORD PTR _ps$[ebp]
	push	eax
	mov	ecx, DWORD PTR _hWnd$[ebp]
	push	ecx
	call	DWORD PTR __imp__EndPaint@8
	cmp	esi, esp
	call	__RTC_CheckEsp

; 668  : 			break;

	jmp	SHORT $LN6@WndProc
$LN4@WndProc:

; 669  : 
; 670  : 		case WM_DESTROY:
; 671  : 			PostQuitMessage( 0 );

	mov	esi, esp
	push	0
	call	DWORD PTR __imp__PostQuitMessage@4
	cmp	esi, esp
	call	__RTC_CheckEsp

; 672  : 			break;

	jmp	SHORT $LN6@WndProc
$LN3@WndProc:

; 673  : 
; 674  : 		// These windows messages (WM_KEYXXXX) can be used to get keyboard input to the window
; 675  : 		// This application has added some simple functions (not DirectX) to process these messages (all in Input.cpp/h)
; 676  : 		case WM_KEYDOWN:
; 677  : 			KeyDownEvent( static_cast<EKeyState>(wParam) );

	mov	eax, DWORD PTR _wParam$[ebp]
	push	eax
	call	?KeyDownEvent@@YAXW4EKeyState@@@Z	; KeyDownEvent
	add	esp, 4

; 678  : 			break;

	jmp	SHORT $LN6@WndProc
$LN2@WndProc:

; 679  : 
; 680  : 		case WM_KEYUP:
; 681  : 			KeyUpEvent( static_cast<EKeyState>(wParam) );

	mov	eax, DWORD PTR _wParam$[ebp]
	push	eax
	call	?KeyUpEvent@@YAXW4EKeyState@@@Z		; KeyUpEvent
	add	esp, 4

; 682  : 			break;

	jmp	SHORT $LN6@WndProc
$LN1@WndProc:

; 683  : 		
; 684  : 		default:
; 685  : 			return DefWindowProc( hWnd, message, wParam, lParam );

	mov	esi, esp
	mov	eax, DWORD PTR _lParam$[ebp]
	push	eax
	mov	ecx, DWORD PTR _wParam$[ebp]
	push	ecx
	mov	edx, DWORD PTR _message$[ebp]
	push	edx
	mov	eax, DWORD PTR _hWnd$[ebp]
	push	eax
	call	DWORD PTR __imp__DefWindowProcW@16
	cmp	esi, esp
	call	__RTC_CheckEsp
	jmp	SHORT $LN8@WndProc
$LN6@WndProc:

; 686  : 	}
; 687  : 
; 688  : 	return 0;

	xor	eax, eax
$LN8@WndProc:

; 689  : }

	push	edx
	mov	ecx, ebp
	push	eax
	lea	edx, DWORD PTR $LN13@WndProc
	call	@_RTC_CheckStackVars@8
	pop	eax
	pop	edx
	pop	edi
	pop	esi
	pop	ebx
	mov	ecx, DWORD PTR __$ArrayPad$[ebp]
	xor	ecx, ebp
	call	@__security_check_cookie@4
	add	esp, 284				; 0000011cH
	cmp	ebp, esp
	call	__RTC_CheckEsp
	mov	esp, ebp
	pop	ebp
	ret	16					; 00000010H
	npad	3
$LN13@WndProc:
	DD	1
	DD	$LN12@WndProc
$LN12@WndProc:
	DD	-72					; ffffffb8H
	DD	64					; 00000040H
	DD	$LN11@WndProc
$LN11@WndProc:
	DB	112					; 00000070H
	DB	115					; 00000073H
	DB	0
?WndProc@@YGJPAUHWND__@@IIJ@Z ENDP			; WndProc
_TEXT	ENDS
; Function compile flags: /Odtp /RTCsu /ZI
; File c:\users\simon\documents\visual studio 2012\projects\stereoscopic\stereoscopic.cpp
;	COMDAT ?InitWindow@@YA_NPAUHINSTANCE__@@H@Z
_TEXT	SEGMENT
_rc$ = -80						; size = 16
_wcex$ = -56						; size = 48
__$ArrayPad$ = -4					; size = 4
_hInstance$ = 8						; size = 4
_nCmdShow$ = 12						; size = 4
?InitWindow@@YA_NPAUHINSTANCE__@@H@Z PROC		; InitWindow, COMDAT

; 624  : {

	push	ebp
	mov	ebp, esp
	sub	esp, 276				; 00000114H
	push	ebx
	push	esi
	push	edi
	lea	edi, DWORD PTR [ebp-276]
	mov	ecx, 69					; 00000045H
	mov	eax, -858993460				; ccccccccH
	rep stosd
	mov	eax, DWORD PTR ___security_cookie
	xor	eax, ebp
	mov	DWORD PTR __$ArrayPad$[ebp], eax

; 625  : 	// Register class
; 626  : 	WNDCLASSEX wcex;
; 627  : 	wcex.cbSize = sizeof( WNDCLASSEX );

	mov	DWORD PTR _wcex$[ebp], 48		; 00000030H

; 628  : 	wcex.style = CS_HREDRAW | CS_VREDRAW;

	mov	DWORD PTR _wcex$[ebp+4], 3

; 629  : 	wcex.lpfnWndProc = WndProc;

	mov	DWORD PTR _wcex$[ebp+8], OFFSET ?WndProc@@YGJPAUHWND__@@IIJ@Z ; WndProc

; 630  : 	wcex.cbClsExtra = 0;

	mov	DWORD PTR _wcex$[ebp+12], 0

; 631  : 	wcex.cbWndExtra = 0;

	mov	DWORD PTR _wcex$[ebp+16], 0

; 632  : 	wcex.hInstance = hInstance;

	mov	eax, DWORD PTR _hInstance$[ebp]
	mov	DWORD PTR _wcex$[ebp+20], eax

; 633  : 	wcex.hIcon = LoadIcon( hInstance, ( LPCTSTR )IDI_TUTORIAL1 );

	mov	esi, esp
	push	107					; 0000006bH
	mov	eax, DWORD PTR _hInstance$[ebp]
	push	eax
	call	DWORD PTR __imp__LoadIconW@8
	cmp	esi, esp
	call	__RTC_CheckEsp
	mov	DWORD PTR _wcex$[ebp+24], eax

; 634  : 	wcex.hCursor = LoadCursor( NULL, IDC_ARROW );

	mov	esi, esp
	push	32512					; 00007f00H
	push	0
	call	DWORD PTR __imp__LoadCursorW@8
	cmp	esi, esp
	call	__RTC_CheckEsp
	mov	DWORD PTR _wcex$[ebp+28], eax

; 635  : 	wcex.hbrBackground = ( HBRUSH )( COLOR_WINDOW + 1 );

	mov	DWORD PTR _wcex$[ebp+32], 6

; 636  : 	wcex.lpszMenuName = NULL;

	mov	DWORD PTR _wcex$[ebp+36], 0

; 637  : 	wcex.lpszClassName = L"TutorialWindowClass";

	mov	DWORD PTR _wcex$[ebp+40], OFFSET ??_C@_1CI@OKMLABGO@?$AAT?$AAu?$AAt?$AAo?$AAr?$AAi?$AAa?$AAl?$AAW?$AAi?$AAn?$AAd?$AAo?$AAw?$AAC?$AAl?$AAa?$AAs?$AAs?$AA?$AA@

; 638  : 	wcex.hIconSm = LoadIcon( wcex.hInstance, ( LPCTSTR )IDI_TUTORIAL1 );

	mov	esi, esp
	push	107					; 0000006bH
	mov	eax, DWORD PTR _wcex$[ebp+20]
	push	eax
	call	DWORD PTR __imp__LoadIconW@8
	cmp	esi, esp
	call	__RTC_CheckEsp
	mov	DWORD PTR _wcex$[ebp+44], eax

; 639  : 	if( !RegisterClassEx( &wcex ) )	return false;

	mov	esi, esp
	lea	eax, DWORD PTR _wcex$[ebp]
	push	eax
	call	DWORD PTR __imp__RegisterClassExW@4
	cmp	esi, esp
	call	__RTC_CheckEsp
	movzx	ecx, ax
	test	ecx, ecx
	jne	SHORT $LN2@InitWindow
	xor	al, al
	jmp	$LN3@InitWindow
$LN2@InitWindow:

; 640  : 
; 641  : 	// Create window
; 642  : 	HInst = hInstance;

	mov	eax, DWORD PTR _hInstance$[ebp]
	mov	DWORD PTR ?HInst@@3PAUHINSTANCE__@@A, eax ; HInst

; 643  : 	RECT rc = { 0, 0, 1280, 960 };

	mov	DWORD PTR _rc$[ebp], 0
	mov	DWORD PTR _rc$[ebp+4], 0
	mov	DWORD PTR _rc$[ebp+8], 1280		; 00000500H
	mov	DWORD PTR _rc$[ebp+12], 960		; 000003c0H

; 644  : 	AdjustWindowRect( &rc, WS_OVERLAPPEDWINDOW, FALSE );

	mov	esi, esp
	push	0
	push	13565952				; 00cf0000H
	lea	eax, DWORD PTR _rc$[ebp]
	push	eax
	call	DWORD PTR __imp__AdjustWindowRect@12
	cmp	esi, esp
	call	__RTC_CheckEsp

; 645  : 	HWnd = CreateWindow( L"TutorialWindowClass", L"Direct3D 10: Stereoscopic Rendering", WS_OVERLAPPEDWINDOW,
; 646  : 	                     CW_USEDEFAULT, CW_USEDEFAULT, rc.right - rc.left, rc.bottom - rc.top, NULL, NULL, hInstance, NULL );

	mov	esi, esp
	push	0
	mov	eax, DWORD PTR _hInstance$[ebp]
	push	eax
	push	0
	push	0
	mov	ecx, DWORD PTR _rc$[ebp+12]
	sub	ecx, DWORD PTR _rc$[ebp+4]
	push	ecx
	mov	edx, DWORD PTR _rc$[ebp+8]
	sub	edx, DWORD PTR _rc$[ebp]
	push	edx
	push	-2147483648				; 80000000H
	push	-2147483648				; 80000000H
	push	13565952				; 00cf0000H
	push	OFFSET ??_C@_1EI@MGPDNLAL@?$AAD?$AAi?$AAr?$AAe?$AAc?$AAt?$AA3?$AAD?$AA?5?$AA1?$AA0?$AA?3?$AA?5?$AAS?$AAt?$AAe?$AAr?$AAe?$AAo?$AAs?$AAc?$AAo?$AAp?$AAi?$AAc?$AA?5?$AAR?$AAe?$AAn?$AAd?$AAe?$AAr@
	push	OFFSET ??_C@_1CI@OKMLABGO@?$AAT?$AAu?$AAt?$AAo?$AAr?$AAi?$AAa?$AAl?$AAW?$AAi?$AAn?$AAd?$AAo?$AAw?$AAC?$AAl?$AAa?$AAs?$AAs?$AA?$AA@
	push	0
	call	DWORD PTR __imp__CreateWindowExW@48
	cmp	esi, esp
	call	__RTC_CheckEsp
	mov	DWORD PTR ?HWnd@@3PAUHWND__@@A, eax	; HWnd

; 647  : 	if( !HWnd )	return false;

	cmp	DWORD PTR ?HWnd@@3PAUHWND__@@A, 0	; HWnd
	jne	SHORT $LN1@InitWindow
	xor	al, al
	jmp	SHORT $LN3@InitWindow
$LN1@InitWindow:

; 648  : 
; 649  : 	ShowWindow( HWnd, nCmdShow );

	mov	esi, esp
	mov	eax, DWORD PTR _nCmdShow$[ebp]
	push	eax
	mov	ecx, DWORD PTR ?HWnd@@3PAUHWND__@@A	; HWnd
	push	ecx
	call	DWORD PTR __imp__ShowWindow@8
	cmp	esi, esp
	call	__RTC_CheckEsp

; 650  : 
; 651  : 	return true;

	mov	al, 1
$LN3@InitWindow:

; 652  : }

	push	edx
	mov	ecx, ebp
	push	eax
	lea	edx, DWORD PTR $LN8@InitWindow
	call	@_RTC_CheckStackVars@8
	pop	eax
	pop	edx
	pop	edi
	pop	esi
	pop	ebx
	mov	ecx, DWORD PTR __$ArrayPad$[ebp]
	xor	ecx, ebp
	call	@__security_check_cookie@4
	add	esp, 276				; 00000114H
	cmp	ebp, esp
	call	__RTC_CheckEsp
	mov	esp, ebp
	pop	ebp
	ret	0
	npad	3
$LN8@InitWindow:
	DD	2
	DD	$LN7@InitWindow
$LN7@InitWindow:
	DD	-56					; ffffffc8H
	DD	48					; 00000030H
	DD	$LN5@InitWindow
	DD	-80					; ffffffb0H
	DD	16					; 00000010H
	DD	$LN6@InitWindow
$LN6@InitWindow:
	DB	114					; 00000072H
	DB	99					; 00000063H
	DB	0
$LN5@InitWindow:
	DB	119					; 00000077H
	DB	99					; 00000063H
	DB	101					; 00000065H
	DB	120					; 00000078H
	DB	0
?InitWindow@@YA_NPAUHINSTANCE__@@H@Z ENDP		; InitWindow
_TEXT	ENDS
; Function compile flags: /Odtp /RTCsu /ZI
; File c:\users\simon\documents\visual studio 2012\projects\stereoscopic\stereoscopic.cpp
;	COMDAT ?RenderScene@@YAXXZ
_TEXT	SEGMENT
tv254 = -284						; size = 4
$T1 = -276						; size = 12
$T2 = -256						; size = 12
_pTech$ = -44						; size = 4
_vp$ = -32						; size = 24
__$ArrayPad$ = -4					; size = 4
?RenderScene@@YAXXZ PROC				; RenderScene, COMDAT

; 477  : {

	push	ebp
	mov	ebp, esp
	sub	esp, 284				; 0000011cH
	push	ebx
	push	esi
	push	edi
	lea	edi, DWORD PTR [ebp-284]
	mov	ecx, 71					; 00000047H
	mov	eax, -858993460				; ccccccccH
	rep stosd
	mov	eax, DWORD PTR ___security_cookie
	xor	eax, ebp
	mov	DWORD PTR __$ArrayPad$[ebp], eax

; 478  : 	//---------------------------
; 479  : 	// Common rendering settings
; 480  : 
; 481  : 	// There are some common features all models that we will be rendering, set these once only
; 482  : 	//**|3D|** Camera settings are different per-eye so not set as here (as they might be in the monoscopic case) ****//
; 483  : 
; 484  : 	// Pass light information to the vertex shader - lights are the same for each model *** and every render target ***
; 485  : 	Light1PosVar->    SetRawValue( Light1->GetPosition(), 0, 12 );  // Send 3 floats (12 bytes) from C++ LightPos variable (x,y,z) to shader counterpart (middle parameter is unused) 

	mov	esi, esp
	push	12					; 0000000cH
	push	0
	lea	eax, DWORD PTR $T1[ebp]
	push	eax
	mov	ecx, DWORD PTR ?Light1@@3PAVCModel@@A	; Light1
	call	?GetPosition@CModel@@QAE?AUD3DXVECTOR3@@XZ ; CModel::GetPosition
	mov	ecx, eax
	call	??BD3DXVECTOR3@@QAEPAMXZ		; D3DXVECTOR3::operator float *
	push	eax
	mov	ecx, DWORD PTR ?Light1PosVar@@3PAUID3D10EffectVectorVariable@@A ; Light1PosVar
	mov	edx, DWORD PTR [ecx]
	mov	eax, DWORD PTR ?Light1PosVar@@3PAUID3D10EffectVectorVariable@@A ; Light1PosVar
	push	eax
	mov	ecx, DWORD PTR [edx+92]
	call	ecx
	cmp	esi, esp
	call	__RTC_CheckEsp

; 486  : 	Light1ColourVar-> SetRawValue( Light1Colour, 0, 12 );

	mov	esi, esp
	push	12					; 0000000cH
	push	0
	mov	ecx, OFFSET ?Light1Colour@@3UD3DXVECTOR3@@A ; Light1Colour
	call	??BD3DXVECTOR3@@QAEPAMXZ		; D3DXVECTOR3::operator float *
	push	eax
	mov	eax, DWORD PTR ?Light1ColourVar@@3PAUID3D10EffectVectorVariable@@A ; Light1ColourVar
	mov	ecx, DWORD PTR [eax]
	mov	edx, DWORD PTR ?Light1ColourVar@@3PAUID3D10EffectVectorVariable@@A ; Light1ColourVar
	push	edx
	mov	eax, DWORD PTR [ecx+92]
	call	eax
	cmp	esi, esp
	call	__RTC_CheckEsp

; 487  : 	Light2PosVar->    SetRawValue( Light2->GetPosition(), 0, 12 );

	mov	esi, esp
	push	12					; 0000000cH
	push	0
	lea	eax, DWORD PTR $T2[ebp]
	push	eax
	mov	ecx, DWORD PTR ?Light2@@3PAVCModel@@A	; Light2
	call	?GetPosition@CModel@@QAE?AUD3DXVECTOR3@@XZ ; CModel::GetPosition
	mov	ecx, eax
	call	??BD3DXVECTOR3@@QAEPAMXZ		; D3DXVECTOR3::operator float *
	push	eax
	mov	ecx, DWORD PTR ?Light2PosVar@@3PAUID3D10EffectVectorVariable@@A ; Light2PosVar
	mov	edx, DWORD PTR [ecx]
	mov	eax, DWORD PTR ?Light2PosVar@@3PAUID3D10EffectVectorVariable@@A ; Light2PosVar
	push	eax
	mov	ecx, DWORD PTR [edx+92]
	call	ecx
	cmp	esi, esp
	call	__RTC_CheckEsp

; 488  : 	Light2ColourVar-> SetRawValue( Light2Colour, 0, 12 );

	mov	esi, esp
	push	12					; 0000000cH
	push	0
	mov	ecx, OFFSET ?Light2Colour@@3UD3DXVECTOR3@@A ; Light2Colour
	call	??BD3DXVECTOR3@@QAEPAMXZ		; D3DXVECTOR3::operator float *
	push	eax
	mov	eax, DWORD PTR ?Light2ColourVar@@3PAUID3D10EffectVectorVariable@@A ; Light2ColourVar
	mov	ecx, DWORD PTR [eax]
	mov	edx, DWORD PTR ?Light2ColourVar@@3PAUID3D10EffectVectorVariable@@A ; Light2ColourVar
	push	edx
	mov	eax, DWORD PTR [ecx+92]
	call	eax
	cmp	esi, esp
	call	__RTC_CheckEsp

; 489  : 	AmbientColourVar->SetRawValue( AmbientColour, 0, 12 );

	mov	esi, esp
	push	12					; 0000000cH
	push	0
	mov	ecx, OFFSET ?AmbientColour@@3UD3DXVECTOR3@@A ; AmbientColour
	call	??BD3DXVECTOR3@@QAEPAMXZ		; D3DXVECTOR3::operator float *
	push	eax
	mov	eax, DWORD PTR ?AmbientColourVar@@3PAUID3D10EffectVectorVariable@@A ; AmbientColourVar
	mov	ecx, DWORD PTR [eax]
	mov	edx, DWORD PTR ?AmbientColourVar@@3PAUID3D10EffectVectorVariable@@A ; AmbientColourVar
	push	edx
	mov	eax, DWORD PTR [ecx+92]
	call	eax
	cmp	esi, esp
	call	__RTC_CheckEsp

; 490  : 	SpecularPowerVar->SetFloat( SpecularPower );

	mov	esi, esp
	push	ecx
	movss	xmm0, DWORD PTR ?SpecularPower@@3MA
	movss	DWORD PTR [esp], xmm0
	mov	eax, DWORD PTR ?SpecularPowerVar@@3PAUID3D10EffectScalarVariable@@A ; SpecularPowerVar
	mov	ecx, DWORD PTR [eax]
	mov	edx, DWORD PTR ?SpecularPowerVar@@3PAUID3D10EffectScalarVariable@@A ; SpecularPowerVar
	push	edx
	mov	eax, DWORD PTR [ecx+100]
	call	eax
	cmp	esi, esp
	call	__RTC_CheckEsp

; 491  : 
; 492  : 	// Setup the viewport - defines which part of the back-buffer we will render to (usually all of it)
; 493  : 	D3D10_VIEWPORT vp;
; 494  : 	vp.Width  = g_ViewportWidth;

	mov	eax, DWORD PTR ?g_ViewportWidth@@3HA	; g_ViewportWidth
	mov	DWORD PTR _vp$[ebp+8], eax

; 495  : 	vp.Height = g_ViewportHeight;

	mov	eax, DWORD PTR ?g_ViewportHeight@@3HA	; g_ViewportHeight
	mov	DWORD PTR _vp$[ebp+12], eax

; 496  : 	vp.MinDepth = 0.0f;

	movss	xmm0, DWORD PTR __real@00000000
	movss	DWORD PTR _vp$[ebp+16], xmm0

; 497  : 	vp.MaxDepth = 1.0f;

	movss	xmm0, DWORD PTR __real@3f800000
	movss	DWORD PTR _vp$[ebp+20], xmm0

; 498  : 	vp.TopLeftX = 0;

	mov	DWORD PTR _vp$[ebp], 0

; 499  : 	vp.TopLeftY = 0;

	mov	DWORD PTR _vp$[ebp+4], 0

; 500  : 	g_pd3dDevice->RSSetViewports( 1, &vp );

	mov	esi, esp
	lea	eax, DWORD PTR _vp$[ebp]
	push	eax
	push	1
	mov	ecx, DWORD PTR ?g_pd3dDevice@@3PAUID3D10Device@@A ; g_pd3dDevice
	mov	edx, DWORD PTR [ecx]
	mov	eax, DWORD PTR ?g_pd3dDevice@@3PAUID3D10Device@@A ; g_pd3dDevice
	push	eax
	mov	ecx, DWORD PTR [edx+120]
	call	ecx
	cmp	esi, esp
	call	__RTC_CheckEsp

; 501  : 
; 502  : 
; 503  : 	//**|3D|****************************************//
; 504  : 	// Render left and right images of scene
; 505  : 
; 506  : 	// Select the texture to use for rendering to, will share the depth/stencil buffer with the backbuffer though
; 507  : 	g_pd3dDevice->OMSetRenderTargets( 1, &LeftRenderTarget, DepthStencilView );

	mov	esi, esp
	mov	eax, DWORD PTR ?DepthStencilView@@3PAUID3D10DepthStencilView@@A ; DepthStencilView
	push	eax
	push	OFFSET ?LeftRenderTarget@@3PAUID3D10RenderTargetView@@A ; LeftRenderTarget
	push	1
	mov	ecx, DWORD PTR ?g_pd3dDevice@@3PAUID3D10Device@@A ; g_pd3dDevice
	mov	edx, DWORD PTR [ecx]
	mov	eax, DWORD PTR ?g_pd3dDevice@@3PAUID3D10Device@@A ; g_pd3dDevice
	push	eax
	mov	ecx, DWORD PTR [edx+96]
	call	ecx
	cmp	esi, esp
	call	__RTC_CheckEsp

; 508  : 
; 509  : 	// Clear the texture and the depth buffer
; 510  : 	g_pd3dDevice->ClearRenderTargetView( LeftRenderTarget, &BackgroundColour[0] );

	mov	ecx, OFFSET ?BackgroundColour@@3UD3DXVECTOR4@@A ; BackgroundColour
	call	??BD3DXVECTOR4@@QAEPAMXZ		; D3DXVECTOR4::operator float *
	mov	ecx, 4
	imul	ecx, 0
	add	eax, ecx
	mov	esi, esp
	push	eax
	mov	edx, DWORD PTR ?LeftRenderTarget@@3PAUID3D10RenderTargetView@@A ; LeftRenderTarget
	push	edx
	mov	eax, DWORD PTR ?g_pd3dDevice@@3PAUID3D10Device@@A ; g_pd3dDevice
	mov	ecx, DWORD PTR [eax]
	mov	edx, DWORD PTR ?g_pd3dDevice@@3PAUID3D10Device@@A ; g_pd3dDevice
	push	edx
	mov	eax, DWORD PTR [ecx+140]
	call	eax
	cmp	esi, esp
	call	__RTC_CheckEsp

; 511  : 	g_pd3dDevice->ClearDepthStencilView( DepthStencilView, D3D10_CLEAR_DEPTH, 1.0f, 0 );

	mov	esi, esp
	push	0
	push	ecx
	movss	xmm0, DWORD PTR __real@3f800000
	movss	DWORD PTR [esp], xmm0
	push	1
	mov	eax, DWORD PTR ?DepthStencilView@@3PAUID3D10DepthStencilView@@A ; DepthStencilView
	push	eax
	mov	ecx, DWORD PTR ?g_pd3dDevice@@3PAUID3D10Device@@A ; g_pd3dDevice
	mov	edx, DWORD PTR [ecx]
	mov	eax, DWORD PTR ?g_pd3dDevice@@3PAUID3D10Device@@A ; g_pd3dDevice
	push	eax
	mov	ecx, DWORD PTR [edx+144]
	call	ecx
	cmp	esi, esp
	call	__RTC_CheckEsp

; 512  : 
; 513  : 	// Render everything from the left camera's point of view
; 514  : 	RenderModels( MainCamera, StereoscopicLeft, Interocular );

	push	ecx
	movss	xmm0, DWORD PTR ?Interocular@@3MA
	movss	DWORD PTR [esp], xmm0
	push	1
	mov	eax, DWORD PTR ?MainCamera@@3PAVCCamera@@A ; MainCamera
	push	eax
	call	?RenderModels@@YAXPAVCCamera@@W4EStereoscopic@@M@Z ; RenderModels
	add	esp, 12					; 0000000cH

; 515  : 
; 516  : 
; 517  : 	vp.TopLeftX = 0;

	mov	DWORD PTR _vp$[ebp], 0

; 518  : 	g_pd3dDevice->RSSetViewports( 1, &vp );

	mov	esi, esp
	lea	eax, DWORD PTR _vp$[ebp]
	push	eax
	push	1
	mov	ecx, DWORD PTR ?g_pd3dDevice@@3PAUID3D10Device@@A ; g_pd3dDevice
	mov	edx, DWORD PTR [ecx]
	mov	eax, DWORD PTR ?g_pd3dDevice@@3PAUID3D10Device@@A ; g_pd3dDevice
	push	eax
	mov	ecx, DWORD PTR [edx+120]
	call	ecx
	cmp	esi, esp
	call	__RTC_CheckEsp

; 519  : 
; 520  : 	// Same again for right view
; 521  : 	g_pd3dDevice->OMSetRenderTargets( 1, &RightRenderTarget, DepthStencilView );

	mov	esi, esp
	mov	eax, DWORD PTR ?DepthStencilView@@3PAUID3D10DepthStencilView@@A ; DepthStencilView
	push	eax
	push	OFFSET ?RightRenderTarget@@3PAUID3D10RenderTargetView@@A ; RightRenderTarget
	push	1
	mov	ecx, DWORD PTR ?g_pd3dDevice@@3PAUID3D10Device@@A ; g_pd3dDevice
	mov	edx, DWORD PTR [ecx]
	mov	eax, DWORD PTR ?g_pd3dDevice@@3PAUID3D10Device@@A ; g_pd3dDevice
	push	eax
	mov	ecx, DWORD PTR [edx+96]
	call	ecx
	cmp	esi, esp
	call	__RTC_CheckEsp

; 522  : 	g_pd3dDevice->ClearRenderTargetView( RightRenderTarget, &BackgroundColour[0] );

	mov	ecx, OFFSET ?BackgroundColour@@3UD3DXVECTOR4@@A ; BackgroundColour
	call	??BD3DXVECTOR4@@QAEPAMXZ		; D3DXVECTOR4::operator float *
	mov	ecx, 4
	imul	ecx, 0
	add	eax, ecx
	mov	esi, esp
	push	eax
	mov	edx, DWORD PTR ?RightRenderTarget@@3PAUID3D10RenderTargetView@@A ; RightRenderTarget
	push	edx
	mov	eax, DWORD PTR ?g_pd3dDevice@@3PAUID3D10Device@@A ; g_pd3dDevice
	mov	ecx, DWORD PTR [eax]
	mov	edx, DWORD PTR ?g_pd3dDevice@@3PAUID3D10Device@@A ; g_pd3dDevice
	push	edx
	mov	eax, DWORD PTR [ecx+140]
	call	eax
	cmp	esi, esp
	call	__RTC_CheckEsp

; 523  : 	g_pd3dDevice->ClearDepthStencilView( DepthStencilView, D3D10_CLEAR_DEPTH, 1.0f, 0 );

	mov	esi, esp
	push	0
	push	ecx
	movss	xmm0, DWORD PTR __real@3f800000
	movss	DWORD PTR [esp], xmm0
	push	1
	mov	eax, DWORD PTR ?DepthStencilView@@3PAUID3D10DepthStencilView@@A ; DepthStencilView
	push	eax
	mov	ecx, DWORD PTR ?g_pd3dDevice@@3PAUID3D10Device@@A ; g_pd3dDevice
	mov	edx, DWORD PTR [ecx]
	mov	eax, DWORD PTR ?g_pd3dDevice@@3PAUID3D10Device@@A ; g_pd3dDevice
	push	eax
	mov	ecx, DWORD PTR [edx+144]
	call	ecx
	cmp	esi, esp
	call	__RTC_CheckEsp

; 524  : 	RenderModels( MainCamera, StereoscopicRight, Interocular );

	push	ecx
	movss	xmm0, DWORD PTR ?Interocular@@3MA
	movss	DWORD PTR [esp], xmm0
	push	2
	mov	eax, DWORD PTR ?MainCamera@@3PAVCCamera@@A ; MainCamera
	push	eax
	call	?RenderModels@@YAXPAVCCamera@@W4EStereoscopic@@M@Z ; RenderModels
	add	esp, 12					; 0000000cH

; 525  : 
; 526  : 	
; 527  : 	//***********************************//
; 528  : 	// Create Anaglyph on Back Buffer
; 529  : 
; 530  : 	// Render full-screen quad over back-buffer using analglyph pixel shader to combine left and right views
; 531  : 
; 532  : 	// Select the back buffer to use for rendering (ignore depth-buffer for full-screen quad) and select left and right views for use in shader
; 533  : 	g_pd3dDevice->OMSetRenderTargets( 1, &BackBufferRenderTarget, DepthStencilView );

	mov	esi, esp
	mov	eax, DWORD PTR ?DepthStencilView@@3PAUID3D10DepthStencilView@@A ; DepthStencilView
	push	eax
	push	OFFSET ?BackBufferRenderTarget@@3PAUID3D10RenderTargetView@@A ; BackBufferRenderTarget
	push	1
	mov	ecx, DWORD PTR ?g_pd3dDevice@@3PAUID3D10Device@@A ; g_pd3dDevice
	mov	edx, DWORD PTR [ecx]
	mov	eax, DWORD PTR ?g_pd3dDevice@@3PAUID3D10Device@@A ; g_pd3dDevice
	push	eax
	mov	ecx, DWORD PTR [edx+96]
	call	ecx
	cmp	esi, esp
	call	__RTC_CheckEsp

; 534  : 	LeftViewVar->SetResource( LeftShaderResource );

	mov	esi, esp
	mov	eax, DWORD PTR ?LeftShaderResource@@3PAUID3D10ShaderResourceView@@A ; LeftShaderResource
	push	eax
	mov	ecx, DWORD PTR ?LeftViewVar@@3PAUID3D10EffectShaderResourceVariable@@A ; LeftViewVar
	mov	edx, DWORD PTR [ecx]
	mov	eax, DWORD PTR ?LeftViewVar@@3PAUID3D10EffectShaderResourceVariable@@A ; LeftViewVar
	push	eax
	mov	ecx, DWORD PTR [edx+100]
	call	ecx
	cmp	esi, esp
	call	__RTC_CheckEsp

; 535  : 	RightViewVar->SetResource( RightShaderResource );

	mov	esi, esp
	mov	eax, DWORD PTR ?RightShaderResource@@3PAUID3D10ShaderResourceView@@A ; RightShaderResource
	push	eax
	mov	ecx, DWORD PTR ?RightViewVar@@3PAUID3D10EffectShaderResourceVariable@@A ; RightViewVar
	mov	edx, DWORD PTR [ecx]
	mov	eax, DWORD PTR ?RightViewVar@@3PAUID3D10EffectShaderResourceVariable@@A ; RightViewVar
	push	eax
	mov	ecx, DWORD PTR [edx+100]
	call	ecx
	cmp	esi, esp
	call	__RTC_CheckEsp

; 536  : 
; 537  : 	// Using special vertex shader than creates its own data (see .fx file). No need to set vertex/index buffer, just draw 4 vertices of quad
; 538  : 	g_pd3dDevice->IASetInputLayout( NULL );

	mov	esi, esp
	push	0
	mov	eax, DWORD PTR ?g_pd3dDevice@@3PAUID3D10Device@@A ; g_pd3dDevice
	mov	ecx, DWORD PTR [eax]
	mov	edx, DWORD PTR ?g_pd3dDevice@@3PAUID3D10Device@@A ; g_pd3dDevice
	push	edx
	mov	eax, DWORD PTR [ecx+44]
	call	eax
	cmp	esi, esp
	call	__RTC_CheckEsp

; 539  : 	g_pd3dDevice->IASetPrimitiveTopology( D3D10_PRIMITIVE_TOPOLOGY_TRIANGLESTRIP );

	mov	esi, esp
	push	5
	mov	eax, DWORD PTR ?g_pd3dDevice@@3PAUID3D10Device@@A ; g_pd3dDevice
	mov	ecx, DWORD PTR [eax]
	mov	edx, DWORD PTR ?g_pd3dDevice@@3PAUID3D10Device@@A ; g_pd3dDevice
	push	edx
	mov	eax, DWORD PTR [ecx+72]
	call	eax
	cmp	esi, esp
	call	__RTC_CheckEsp

; 540  : 	ID3D10EffectTechnique * pTech = NULL;

	mov	DWORD PTR _pTech$[ebp], 0

; 541  : 	AnaglyphTechnique->GetPassByIndex(0)->Apply(0);

	mov	esi, esp
	push	0
	mov	eax, DWORD PTR ?AnaglyphTechnique@@3PAUID3D10EffectTechnique@@A ; AnaglyphTechnique
	mov	ecx, DWORD PTR [eax]
	mov	edx, DWORD PTR ?AnaglyphTechnique@@3PAUID3D10EffectTechnique@@A ; AnaglyphTechnique
	push	edx
	mov	eax, DWORD PTR [ecx+16]
	call	eax
	cmp	esi, esp
	call	__RTC_CheckEsp
	mov	DWORD PTR tv254[ebp], eax
	mov	esi, esp
	push	0
	mov	ecx, DWORD PTR tv254[ebp]
	push	ecx
	mov	edx, DWORD PTR tv254[ebp]
	mov	eax, DWORD PTR [edx]
	mov	ecx, DWORD PTR [eax+28]
	call	ecx
	cmp	esi, esp
	call	__RTC_CheckEsp

; 542  : 	g_pd3dDevice->Draw( 4, 0 );

	mov	esi, esp
	push	0
	push	4
	mov	eax, DWORD PTR ?g_pd3dDevice@@3PAUID3D10Device@@A ; g_pd3dDevice
	mov	ecx, DWORD PTR [eax]
	mov	edx, DWORD PTR ?g_pd3dDevice@@3PAUID3D10Device@@A ; g_pd3dDevice
	push	edx
	mov	eax, DWORD PTR [ecx+36]
	call	eax
	cmp	esi, esp
	call	__RTC_CheckEsp

; 543  : 
; 544  : 	//***********************************//
; 545  : 
; 546  : 
; 547  : 	//---------------------------
; 548  : 	// Display the Scene
; 549  : 
; 550  : 	// After we've finished drawing to the off-screen back buffer, we "present" it to the front buffer (the screen)
; 551  : 	SwapChain->Present( 0, 0 );

	mov	esi, esp
	push	0
	push	0
	mov	eax, DWORD PTR ?SwapChain@@3PAUIDXGISwapChain@@A ; SwapChain
	mov	ecx, DWORD PTR [eax]
	mov	edx, DWORD PTR ?SwapChain@@3PAUIDXGISwapChain@@A ; SwapChain
	push	edx
	mov	eax, DWORD PTR [ecx+32]
	call	eax
	cmp	esi, esp
	call	__RTC_CheckEsp

; 552  : }

	push	edx
	mov	ecx, ebp
	push	eax
	lea	edx, DWORD PTR $LN5@RenderScen
	call	@_RTC_CheckStackVars@8
	pop	eax
	pop	edx
	pop	edi
	pop	esi
	pop	ebx
	mov	ecx, DWORD PTR __$ArrayPad$[ebp]
	xor	ecx, ebp
	call	@__security_check_cookie@4
	add	esp, 284				; 0000011cH
	cmp	ebp, esp
	call	__RTC_CheckEsp
	mov	esp, ebp
	pop	ebp
	ret	0
	npad	2
$LN5@RenderScen:
	DD	1
	DD	$LN4@RenderScen
$LN4@RenderScen:
	DD	-32					; ffffffe0H
	DD	24					; 00000018H
	DD	$LN3@RenderScen
$LN3@RenderScen:
	DB	118					; 00000076H
	DB	112					; 00000070H
	DB	0
?RenderScene@@YAXXZ ENDP				; RenderScene
_TEXT	ENDS
; Function compile flags: /Odtp /RTCsu /ZI
; File c:\users\simon\documents\visual studio 2012\projects\stereoscopic\stereoscopic.cpp
;	COMDAT ?RenderModels@@YAXPAVCCamera@@W4EStereoscopic@@M@Z
_TEXT	SEGMENT
$T1 = -788						; size = 64
$T2 = -716						; size = 64
$T3 = -644						; size = 12
$T4 = -624						; size = 64
$T5 = -552						; size = 64
$T6 = -480						; size = 64
$T7 = -408						; size = 64
$T8 = -336						; size = 64
$T9 = -264						; size = 64
__$ArrayPad$ = -4					; size = 4
_camera$ = 8						; size = 4
_stereo$ = 12						; size = 4
_interocular$ = 16					; size = 4
?RenderModels@@YAXPAVCCamera@@W4EStereoscopic@@M@Z PROC	; RenderModels, COMDAT

; 438  : {

	push	ebp
	mov	ebp, esp
	sub	esp, 792				; 00000318H
	push	ebx
	push	esi
	push	edi
	lea	edi, DWORD PTR [ebp-792]
	mov	ecx, 198				; 000000c6H
	mov	eax, -858993460				; ccccccccH
	rep stosd
	mov	eax, DWORD PTR ___security_cookie
	xor	eax, ebp
	mov	DWORD PTR __$ArrayPad$[ebp], eax

; 439  : 	// Pass the camera's matrices to the vertex shader and position to the vertex shader
; 440  : 	ViewMatrixVar->SetMatrix( (float*)&camera->GetViewMatrix( stereo, interocular ) );

	push	ecx
	movss	xmm0, DWORD PTR _interocular$[ebp]
	movss	DWORD PTR [esp], xmm0
	mov	eax, DWORD PTR _stereo$[ebp]
	push	eax
	lea	ecx, DWORD PTR $T1[ebp]
	push	ecx
	mov	ecx, DWORD PTR _camera$[ebp]
	call	?GetViewMatrix@CCamera@@QAE?AU_D3DXMATRIXA16@@W4EStereoscopic@@M@Z ; CCamera::GetViewMatrix
	mov	esi, esp
	push	eax
	mov	edx, DWORD PTR ?ViewMatrixVar@@3PAUID3D10EffectMatrixVariable@@A ; ViewMatrixVar
	mov	eax, DWORD PTR [edx]
	mov	ecx, DWORD PTR ?ViewMatrixVar@@3PAUID3D10EffectMatrixVariable@@A ; ViewMatrixVar
	push	ecx
	mov	edx, DWORD PTR [eax+100]
	call	edx
	cmp	esi, esp
	call	__RTC_CheckEsp

; 441  : 	ProjMatrixVar->SetMatrix( (float*)&camera->GetProjectionMatrix( stereo, interocular ) );

	push	ecx
	movss	xmm0, DWORD PTR __real@41a00000
	movss	DWORD PTR [esp], xmm0
	push	ecx
	movss	xmm0, DWORD PTR _interocular$[ebp]
	movss	DWORD PTR [esp], xmm0
	mov	eax, DWORD PTR _stereo$[ebp]
	push	eax
	lea	ecx, DWORD PTR $T2[ebp]
	push	ecx
	mov	ecx, DWORD PTR _camera$[ebp]
	call	?GetProjectionMatrix@CCamera@@QAE?AU_D3DXMATRIXA16@@W4EStereoscopic@@MM@Z ; CCamera::GetProjectionMatrix
	mov	esi, esp
	push	eax
	mov	edx, DWORD PTR ?ProjMatrixVar@@3PAUID3D10EffectMatrixVariable@@A ; ProjMatrixVar
	mov	eax, DWORD PTR [edx]
	mov	ecx, DWORD PTR ?ProjMatrixVar@@3PAUID3D10EffectMatrixVariable@@A ; ProjMatrixVar
	push	ecx
	mov	edx, DWORD PTR [eax+100]
	call	edx
	cmp	esi, esp
	call	__RTC_CheckEsp

; 442  : 	CameraPosVar->SetRawValue( camera->GetPosition( stereo, interocular ), 0, 12 );

	mov	esi, esp
	push	12					; 0000000cH
	push	0
	push	ecx
	movss	xmm0, DWORD PTR _interocular$[ebp]
	movss	DWORD PTR [esp], xmm0
	mov	eax, DWORD PTR _stereo$[ebp]
	push	eax
	lea	ecx, DWORD PTR $T3[ebp]
	push	ecx
	mov	ecx, DWORD PTR _camera$[ebp]
	call	?GetPosition@CCamera@@QAE?AUD3DXVECTOR3@@W4EStereoscopic@@M@Z ; CCamera::GetPosition
	mov	ecx, eax
	call	??BD3DXVECTOR3@@QAEPAMXZ		; D3DXVECTOR3::operator float *
	push	eax
	mov	edx, DWORD PTR ?CameraPosVar@@3PAUID3D10EffectVectorVariable@@A ; CameraPosVar
	mov	eax, DWORD PTR [edx]
	mov	ecx, DWORD PTR ?CameraPosVar@@3PAUID3D10EffectVectorVariable@@A ; CameraPosVar
	push	ecx
	mov	edx, DWORD PTR [eax+92]
	call	edx
	cmp	esi, esp
	call	__RTC_CheckEsp

; 443  : 
; 444  : 
; 445  : 	// Render cube
; 446  : 	WorldMatrixVar->SetMatrix( (float*)Cube->GetWorldMatrix() );  // Send the cube's world matrix to the shader

	lea	eax, DWORD PTR $T4[ebp]
	push	eax
	mov	ecx, DWORD PTR ?Cube@@3PAVCModel@@A	; Cube
	call	?GetWorldMatrix@CModel@@QAE?AU_D3DXMATRIXA16@@XZ ; CModel::GetWorldMatrix
	mov	ecx, eax
	call	??BD3DXMATRIX@@QAEPAMXZ			; D3DXMATRIX::operator float *
	mov	esi, esp
	push	eax
	mov	ecx, DWORD PTR ?WorldMatrixVar@@3PAUID3D10EffectMatrixVariable@@A ; WorldMatrixVar
	mov	edx, DWORD PTR [ecx]
	mov	eax, DWORD PTR ?WorldMatrixVar@@3PAUID3D10EffectMatrixVariable@@A ; WorldMatrixVar
	push	eax
	mov	ecx, DWORD PTR [edx+100]
	call	ecx
	cmp	esi, esp
	call	__RTC_CheckEsp

; 447  :     DiffuseMapVar->SetResource( CubeDiffuseMap );                 // Send the cube's diffuse/specular map to the shader

	mov	esi, esp
	mov	eax, DWORD PTR ?CubeDiffuseMap@@3PAUID3D10ShaderResourceView@@A ; CubeDiffuseMap
	push	eax
	mov	ecx, DWORD PTR ?DiffuseMapVar@@3PAUID3D10EffectShaderResourceVariable@@A ; DiffuseMapVar
	mov	edx, DWORD PTR [ecx]
	mov	eax, DWORD PTR ?DiffuseMapVar@@3PAUID3D10EffectShaderResourceVariable@@A ; DiffuseMapVar
	push	eax
	mov	ecx, DWORD PTR [edx+100]
	call	ecx
	cmp	esi, esp
	call	__RTC_CheckEsp

; 448  : 	Cube->Render( VertexLitTexTechnique );                        // Pass rendering technique to the model class

	mov	eax, DWORD PTR ?VertexLitTexTechnique@@3PAUID3D10EffectTechnique@@A ; VertexLitTexTechnique
	push	eax
	mov	ecx, DWORD PTR ?Cube@@3PAVCModel@@A	; Cube
	call	?Render@CModel@@QAEXPAUID3D10EffectTechnique@@@Z ; CModel::Render

; 449  : 
; 450  : 	// Same for the other models in the scene
; 451  : 	WorldMatrixVar->SetMatrix( (float*)Crate->GetWorldMatrix() );

	lea	eax, DWORD PTR $T5[ebp]
	push	eax
	mov	ecx, DWORD PTR ?Crate@@3PAVCModel@@A	; Crate
	call	?GetWorldMatrix@CModel@@QAE?AU_D3DXMATRIXA16@@XZ ; CModel::GetWorldMatrix
	mov	ecx, eax
	call	??BD3DXMATRIX@@QAEPAMXZ			; D3DXMATRIX::operator float *
	mov	esi, esp
	push	eax
	mov	ecx, DWORD PTR ?WorldMatrixVar@@3PAUID3D10EffectMatrixVariable@@A ; WorldMatrixVar
	mov	edx, DWORD PTR [ecx]
	mov	eax, DWORD PTR ?WorldMatrixVar@@3PAUID3D10EffectMatrixVariable@@A ; WorldMatrixVar
	push	eax
	mov	ecx, DWORD PTR [edx+100]
	call	ecx
	cmp	esi, esp
	call	__RTC_CheckEsp

; 452  :     DiffuseMapVar->SetResource( CrateDiffuseMap );

	mov	esi, esp
	mov	eax, DWORD PTR ?CrateDiffuseMap@@3PAUID3D10ShaderResourceView@@A ; CrateDiffuseMap
	push	eax
	mov	ecx, DWORD PTR ?DiffuseMapVar@@3PAUID3D10EffectShaderResourceVariable@@A ; DiffuseMapVar
	mov	edx, DWORD PTR [ecx]
	mov	eax, DWORD PTR ?DiffuseMapVar@@3PAUID3D10EffectShaderResourceVariable@@A ; DiffuseMapVar
	push	eax
	mov	ecx, DWORD PTR [edx+100]
	call	ecx
	cmp	esi, esp
	call	__RTC_CheckEsp

; 453  : 	Crate->Render( VertexLitTexTechnique );

	mov	eax, DWORD PTR ?VertexLitTexTechnique@@3PAUID3D10EffectTechnique@@A ; VertexLitTexTechnique
	push	eax
	mov	ecx, DWORD PTR ?Crate@@3PAVCModel@@A	; Crate
	call	?Render@CModel@@QAEXPAUID3D10EffectTechnique@@@Z ; CModel::Render

; 454  : 
; 455  : 	WorldMatrixVar->SetMatrix( (float*)Ground->GetWorldMatrix() );

	lea	eax, DWORD PTR $T6[ebp]
	push	eax
	mov	ecx, DWORD PTR ?Ground@@3PAVCModel@@A	; Ground
	call	?GetWorldMatrix@CModel@@QAE?AU_D3DXMATRIXA16@@XZ ; CModel::GetWorldMatrix
	mov	ecx, eax
	call	??BD3DXMATRIX@@QAEPAMXZ			; D3DXMATRIX::operator float *
	mov	esi, esp
	push	eax
	mov	ecx, DWORD PTR ?WorldMatrixVar@@3PAUID3D10EffectMatrixVariable@@A ; WorldMatrixVar
	mov	edx, DWORD PTR [ecx]
	mov	eax, DWORD PTR ?WorldMatrixVar@@3PAUID3D10EffectMatrixVariable@@A ; WorldMatrixVar
	push	eax
	mov	ecx, DWORD PTR [edx+100]
	call	ecx
	cmp	esi, esp
	call	__RTC_CheckEsp

; 456  :     DiffuseMapVar->SetResource( GroundDiffuseMap );

	mov	esi, esp
	mov	eax, DWORD PTR ?GroundDiffuseMap@@3PAUID3D10ShaderResourceView@@A ; GroundDiffuseMap
	push	eax
	mov	ecx, DWORD PTR ?DiffuseMapVar@@3PAUID3D10EffectShaderResourceVariable@@A ; DiffuseMapVar
	mov	edx, DWORD PTR [ecx]
	mov	eax, DWORD PTR ?DiffuseMapVar@@3PAUID3D10EffectShaderResourceVariable@@A ; DiffuseMapVar
	push	eax
	mov	ecx, DWORD PTR [edx+100]
	call	ecx
	cmp	esi, esp
	call	__RTC_CheckEsp

; 457  : 	Ground->Render( VertexLitTexTechnique );

	mov	eax, DWORD PTR ?VertexLitTexTechnique@@3PAUID3D10EffectTechnique@@A ; VertexLitTexTechnique
	push	eax
	mov	ecx, DWORD PTR ?Ground@@3PAVCModel@@A	; Ground
	call	?Render@CModel@@QAEXPAUID3D10EffectTechnique@@@Z ; CModel::Render

; 458  : 
; 459  : 	WorldMatrixVar->SetMatrix( (float*)Stars->GetWorldMatrix() );

	lea	eax, DWORD PTR $T7[ebp]
	push	eax
	mov	ecx, DWORD PTR ?Stars@@3PAVCModel@@A	; Stars
	call	?GetWorldMatrix@CModel@@QAE?AU_D3DXMATRIXA16@@XZ ; CModel::GetWorldMatrix
	mov	ecx, eax
	call	??BD3DXMATRIX@@QAEPAMXZ			; D3DXMATRIX::operator float *
	mov	esi, esp
	push	eax
	mov	ecx, DWORD PTR ?WorldMatrixVar@@3PAUID3D10EffectMatrixVariable@@A ; WorldMatrixVar
	mov	edx, DWORD PTR [ecx]
	mov	eax, DWORD PTR ?WorldMatrixVar@@3PAUID3D10EffectMatrixVariable@@A ; WorldMatrixVar
	push	eax
	mov	ecx, DWORD PTR [edx+100]
	call	ecx
	cmp	esi, esp
	call	__RTC_CheckEsp

; 460  :     DiffuseMapVar->SetResource( StarsDiffuseMap );

	mov	esi, esp
	mov	eax, DWORD PTR ?StarsDiffuseMap@@3PAUID3D10ShaderResourceView@@A ; StarsDiffuseMap
	push	eax
	mov	ecx, DWORD PTR ?DiffuseMapVar@@3PAUID3D10EffectShaderResourceVariable@@A ; DiffuseMapVar
	mov	edx, DWORD PTR [ecx]
	mov	eax, DWORD PTR ?DiffuseMapVar@@3PAUID3D10EffectShaderResourceVariable@@A ; DiffuseMapVar
	push	eax
	mov	ecx, DWORD PTR [edx+100]
	call	ecx
	cmp	esi, esp
	call	__RTC_CheckEsp

; 461  : 	Stars->Render( VertexLitTexTechnique );

	mov	eax, DWORD PTR ?VertexLitTexTechnique@@3PAUID3D10EffectTechnique@@A ; VertexLitTexTechnique
	push	eax
	mov	ecx, DWORD PTR ?Stars@@3PAVCModel@@A	; Stars
	call	?Render@CModel@@QAEXPAUID3D10EffectTechnique@@@Z ; CModel::Render

; 462  : 
; 463  : 	WorldMatrixVar->SetMatrix( (float*)Light1->GetWorldMatrix() );

	lea	eax, DWORD PTR $T8[ebp]
	push	eax
	mov	ecx, DWORD PTR ?Light1@@3PAVCModel@@A	; Light1
	call	?GetWorldMatrix@CModel@@QAE?AU_D3DXMATRIXA16@@XZ ; CModel::GetWorldMatrix
	mov	ecx, eax
	call	??BD3DXMATRIX@@QAEPAMXZ			; D3DXMATRIX::operator float *
	mov	esi, esp
	push	eax
	mov	ecx, DWORD PTR ?WorldMatrixVar@@3PAUID3D10EffectMatrixVariable@@A ; WorldMatrixVar
	mov	edx, DWORD PTR [ecx]
	mov	eax, DWORD PTR ?WorldMatrixVar@@3PAUID3D10EffectMatrixVariable@@A ; WorldMatrixVar
	push	eax
	mov	ecx, DWORD PTR [edx+100]
	call	ecx
	cmp	esi, esp
	call	__RTC_CheckEsp

; 464  :     DiffuseMapVar->SetResource( LightDiffuseMap );

	mov	esi, esp
	mov	eax, DWORD PTR ?LightDiffuseMap@@3PAUID3D10ShaderResourceView@@A ; LightDiffuseMap
	push	eax
	mov	ecx, DWORD PTR ?DiffuseMapVar@@3PAUID3D10EffectShaderResourceVariable@@A ; DiffuseMapVar
	mov	edx, DWORD PTR [ecx]
	mov	eax, DWORD PTR ?DiffuseMapVar@@3PAUID3D10EffectShaderResourceVariable@@A ; DiffuseMapVar
	push	eax
	mov	ecx, DWORD PTR [edx+100]
	call	ecx
	cmp	esi, esp
	call	__RTC_CheckEsp

; 465  : 	TintColourVar->SetRawValue( Light1Colour, 0, 12 ); // Using special shader that tints the light model to match the light colour

	mov	esi, esp
	push	12					; 0000000cH
	push	0
	mov	ecx, OFFSET ?Light1Colour@@3UD3DXVECTOR3@@A ; Light1Colour
	call	??BD3DXVECTOR3@@QAEPAMXZ		; D3DXVECTOR3::operator float *
	push	eax
	mov	eax, DWORD PTR ?TintColourVar@@3PAUID3D10EffectVectorVariable@@A ; TintColourVar
	mov	ecx, DWORD PTR [eax]
	mov	edx, DWORD PTR ?TintColourVar@@3PAUID3D10EffectVectorVariable@@A ; TintColourVar
	push	edx
	mov	eax, DWORD PTR [ecx+92]
	call	eax
	cmp	esi, esp
	call	__RTC_CheckEsp

; 466  : 	Light1->Render( AdditiveTexTintTechnique );

	mov	eax, DWORD PTR ?AdditiveTexTintTechnique@@3PAUID3D10EffectTechnique@@A ; AdditiveTexTintTechnique
	push	eax
	mov	ecx, DWORD PTR ?Light1@@3PAVCModel@@A	; Light1
	call	?Render@CModel@@QAEXPAUID3D10EffectTechnique@@@Z ; CModel::Render

; 467  : 
; 468  : 	WorldMatrixVar->SetMatrix( (float*)Light2->GetWorldMatrix() );

	lea	eax, DWORD PTR $T9[ebp]
	push	eax
	mov	ecx, DWORD PTR ?Light2@@3PAVCModel@@A	; Light2
	call	?GetWorldMatrix@CModel@@QAE?AU_D3DXMATRIXA16@@XZ ; CModel::GetWorldMatrix
	mov	ecx, eax
	call	??BD3DXMATRIX@@QAEPAMXZ			; D3DXMATRIX::operator float *
	mov	esi, esp
	push	eax
	mov	ecx, DWORD PTR ?WorldMatrixVar@@3PAUID3D10EffectMatrixVariable@@A ; WorldMatrixVar
	mov	edx, DWORD PTR [ecx]
	mov	eax, DWORD PTR ?WorldMatrixVar@@3PAUID3D10EffectMatrixVariable@@A ; WorldMatrixVar
	push	eax
	mov	ecx, DWORD PTR [edx+100]
	call	ecx
	cmp	esi, esp
	call	__RTC_CheckEsp

; 469  :     DiffuseMapVar->SetResource( LightDiffuseMap );

	mov	esi, esp
	mov	eax, DWORD PTR ?LightDiffuseMap@@3PAUID3D10ShaderResourceView@@A ; LightDiffuseMap
	push	eax
	mov	ecx, DWORD PTR ?DiffuseMapVar@@3PAUID3D10EffectShaderResourceVariable@@A ; DiffuseMapVar
	mov	edx, DWORD PTR [ecx]
	mov	eax, DWORD PTR ?DiffuseMapVar@@3PAUID3D10EffectShaderResourceVariable@@A ; DiffuseMapVar
	push	eax
	mov	ecx, DWORD PTR [edx+100]
	call	ecx
	cmp	esi, esp
	call	__RTC_CheckEsp

; 470  : 	TintColourVar->SetRawValue( Light2Colour, 0, 12 );

	mov	esi, esp
	push	12					; 0000000cH
	push	0
	mov	ecx, OFFSET ?Light2Colour@@3UD3DXVECTOR3@@A ; Light2Colour
	call	??BD3DXVECTOR3@@QAEPAMXZ		; D3DXVECTOR3::operator float *
	push	eax
	mov	eax, DWORD PTR ?TintColourVar@@3PAUID3D10EffectVectorVariable@@A ; TintColourVar
	mov	ecx, DWORD PTR [eax]
	mov	edx, DWORD PTR ?TintColourVar@@3PAUID3D10EffectVectorVariable@@A ; TintColourVar
	push	edx
	mov	eax, DWORD PTR [ecx+92]
	call	eax
	cmp	esi, esp
	call	__RTC_CheckEsp

; 471  : 	Light2->Render( AdditiveTexTintTechnique );

	mov	eax, DWORD PTR ?AdditiveTexTintTechnique@@3PAUID3D10EffectTechnique@@A ; AdditiveTexTintTechnique
	push	eax
	mov	ecx, DWORD PTR ?Light2@@3PAVCModel@@A	; Light2
	call	?Render@CModel@@QAEXPAUID3D10EffectTechnique@@@Z ; CModel::Render

; 472  : }

	pop	edi
	pop	esi
	pop	ebx
	mov	ecx, DWORD PTR __$ArrayPad$[ebp]
	xor	ecx, ebp
	call	@__security_check_cookie@4
	add	esp, 792				; 00000318H
	cmp	ebp, esp
	call	__RTC_CheckEsp
	mov	esp, ebp
	pop	ebp
	ret	0
?RenderModels@@YAXPAVCCamera@@W4EStereoscopic@@M@Z ENDP	; RenderModels
_TEXT	ENDS
; Function compile flags: /Odtp /RTCsu /ZI
; File c:\users\simon\documents\visual studio 2012\projects\stereoscopic\stereoscopic.cpp
;	COMDAT ?UpdateScene@@YAXM@Z
_TEXT	SEGMENT
tv173 = -264						; size = 4
tv167 = -260						; size = 4
$T1 = -252						; size = 12
$T2 = -232						; size = 12
$T3 = -212						; size = 12
__$ArrayPad$ = -4					; size = 4
_frameTime$ = 8						; size = 4
?UpdateScene@@YAXM@Z PROC				; UpdateScene, COMDAT

; 399  : {

	push	ebp
	mov	ebp, esp
	sub	esp, 264				; 00000108H
	push	ebx
	push	esi
	push	edi
	lea	edi, DWORD PTR [ebp-264]
	mov	ecx, 66					; 00000042H
	mov	eax, -858993460				; ccccccccH
	rep stosd
	mov	eax, DWORD PTR ___security_cookie
	xor	eax, ebp
	mov	DWORD PTR __$ArrayPad$[ebp], eax

; 400  : 	// Control camera position and update its matrices (monoscopic version)
; 401  : 	MainCamera->Control( frameTime, Key_Up, Key_Down, Key_Left, Key_Right, Key_W, Key_S, Key_A, Key_D );

	push	68					; 00000044H
	push	65					; 00000041H
	push	83					; 00000053H
	push	87					; 00000057H
	push	39					; 00000027H
	push	37					; 00000025H
	push	40					; 00000028H
	push	38					; 00000026H
	push	ecx
	movss	xmm0, DWORD PTR _frameTime$[ebp]
	movss	DWORD PTR [esp], xmm0
	mov	ecx, DWORD PTR ?MainCamera@@3PAVCCamera@@A ; MainCamera
	call	?Control@CCamera@@QAEXMW4EKeyCode@@0000000@Z ; CCamera::Control

; 402  : 	MainCamera->UpdateMatrices();

	mov	ecx, DWORD PTR ?MainCamera@@3PAVCCamera@@A ; MainCamera
	call	?UpdateMatrices@CCamera@@QAEXXZ		; CCamera::UpdateMatrices

; 403  : 	
; 404  : 	// Control cube position and update its world matrix each frame
; 405  : 	Cube->Control( frameTime, Key_I, Key_K, Key_J, Key_L, Key_U, Key_O, Key_Period, Key_Comma );

	push	188					; 000000bcH
	push	190					; 000000beH
	push	79					; 0000004fH
	push	85					; 00000055H
	push	76					; 0000004cH
	push	74					; 0000004aH
	push	75					; 0000004bH
	push	73					; 00000049H
	push	ecx
	movss	xmm0, DWORD PTR _frameTime$[ebp]
	movss	DWORD PTR [esp], xmm0
	mov	ecx, DWORD PTR ?Cube@@3PAVCModel@@A	; Cube
	call	?Control@CModel@@QAEXMW4EKeyCode@@0000000@Z ; CModel::Control

; 406  : 	Cube->UpdateMatrix();

	mov	ecx, DWORD PTR ?Cube@@3PAVCModel@@A	; Cube
	call	?UpdateMatrix@CModel@@QAEXXZ		; CModel::UpdateMatrix

; 407  : 
; 408  : 	// Update the orbiting light - a bit of a cheat with the static variable
; 409  : 	static float Rotate = 0.0f;
; 410  : 	Light1->SetPosition( Cube->GetPosition() + D3DXVECTOR3(cos(Rotate)*LightOrbitRadius, 0, sin(Rotate)*LightOrbitRadius) );

	push	ecx
	movss	xmm0, DWORD PTR ?Rotate@?1??UpdateScene@@YAXM@Z@4MA
	movss	DWORD PTR [esp], xmm0
	call	?sin@@YAMM@Z				; sin
	add	esp, 4
	fstp	DWORD PTR tv167[ebp]
	movss	xmm0, DWORD PTR tv167[ebp]
	mulss	xmm0, DWORD PTR _LightOrbitRadius
	push	ecx
	movss	DWORD PTR [esp], xmm0
	push	ecx
	movss	xmm0, DWORD PTR __real@00000000
	movss	DWORD PTR [esp], xmm0
	push	ecx
	movss	xmm0, DWORD PTR ?Rotate@?1??UpdateScene@@YAXM@Z@4MA
	movss	DWORD PTR [esp], xmm0
	call	?cos@@YAMM@Z				; cos
	add	esp, 4
	fstp	DWORD PTR tv173[ebp]
	movss	xmm0, DWORD PTR tv173[ebp]
	mulss	xmm0, DWORD PTR _LightOrbitRadius
	push	ecx
	movss	DWORD PTR [esp], xmm0
	lea	ecx, DWORD PTR $T2[ebp]
	call	??0D3DXVECTOR3@@QAE@MMM@Z		; D3DXVECTOR3::D3DXVECTOR3
	push	eax
	lea	eax, DWORD PTR $T3[ebp]
	push	eax
	lea	ecx, DWORD PTR $T1[ebp]
	push	ecx
	mov	ecx, DWORD PTR ?Cube@@3PAVCModel@@A	; Cube
	call	?GetPosition@CModel@@QAE?AUD3DXVECTOR3@@XZ ; CModel::GetPosition
	mov	ecx, eax
	call	??HD3DXVECTOR3@@QBE?AU0@ABU0@@Z		; D3DXVECTOR3::operator+
	sub	esp, 12					; 0000000cH
	mov	edx, esp
	mov	ecx, DWORD PTR [eax]
	mov	DWORD PTR [edx], ecx
	mov	ecx, DWORD PTR [eax+4]
	mov	DWORD PTR [edx+4], ecx
	mov	eax, DWORD PTR [eax+8]
	mov	DWORD PTR [edx+8], eax
	mov	ecx, DWORD PTR ?Light1@@3PAVCModel@@A	; Light1
	call	?SetPosition@CModel@@QAEXUD3DXVECTOR3@@@Z ; CModel::SetPosition

; 411  : 	Rotate -= LightOrbitSpeed * frameTime;

	movss	xmm0, DWORD PTR _LightOrbitSpeed
	mulss	xmm0, DWORD PTR _frameTime$[ebp]
	movss	xmm1, DWORD PTR ?Rotate@?1??UpdateScene@@YAXM@Z@4MA
	subss	xmm1, xmm0
	movss	DWORD PTR ?Rotate@?1??UpdateScene@@YAXM@Z@4MA, xmm1

; 412  : 	Light1->UpdateMatrix();

	mov	ecx, DWORD PTR ?Light1@@3PAVCModel@@A	; Light1
	call	?UpdateMatrix@CModel@@QAEXXZ		; CModel::UpdateMatrix

; 413  : 
; 414  : 	// Objects that don't move still need a world matrix - could do this in SceneSetup function (which occurs once at the start of the app)
; 415  : 	Stars->UpdateMatrix();

	mov	ecx, DWORD PTR ?Stars@@3PAVCModel@@A	; Stars
	call	?UpdateMatrix@CModel@@QAEXXZ		; CModel::UpdateMatrix

; 416  : 	Crate->UpdateMatrix();

	mov	ecx, DWORD PTR ?Crate@@3PAVCModel@@A	; Crate
	call	?UpdateMatrix@CModel@@QAEXXZ		; CModel::UpdateMatrix

; 417  : 	Ground->UpdateMatrix();

	mov	ecx, DWORD PTR ?Ground@@3PAVCModel@@A	; Ground
	call	?UpdateMatrix@CModel@@QAEXXZ		; CModel::UpdateMatrix

; 418  : 	Light2->UpdateMatrix();

	mov	ecx, DWORD PTR ?Light2@@3PAVCModel@@A	; Light2
	call	?UpdateMatrix@CModel@@QAEXXZ		; CModel::UpdateMatrix

; 419  : 
; 420  : 	// Change the interocular distance on Page-up and Page-down
; 421  : 	if (KeyHeld(Key_Next))

	push	34					; 00000022H
	call	?KeyHeld@@YA_NW4EKeyCode@@@Z		; KeyHeld
	add	esp, 4
	movzx	eax, al
	test	eax, eax
	je	SHORT $LN2@UpdateScen

; 422  : 	{
; 423  : 		Interocular += 0.6f * frameTime;

	movss	xmm0, DWORD PTR __real@3f19999a
	mulss	xmm0, DWORD PTR _frameTime$[ebp]
	addss	xmm0, DWORD PTR ?Interocular@@3MA
	movss	DWORD PTR ?Interocular@@3MA, xmm0
$LN2@UpdateScen:

; 424  : 	}
; 425  : 	if (KeyHeld(Key_Prior))

	push	33					; 00000021H
	call	?KeyHeld@@YA_NW4EKeyCode@@@Z		; KeyHeld
	add	esp, 4
	movzx	eax, al
	test	eax, eax
	je	SHORT $LN1@UpdateScen

; 426  : 	{
; 427  : 		Interocular -= 0.6f * frameTime;

	movss	xmm0, DWORD PTR __real@3f19999a
	mulss	xmm0, DWORD PTR _frameTime$[ebp]
	movss	xmm1, DWORD PTR ?Interocular@@3MA
	subss	xmm1, xmm0
	movss	DWORD PTR ?Interocular@@3MA, xmm1
$LN1@UpdateScen:

; 428  : 	}
; 429  : }

	pop	edi
	pop	esi
	pop	ebx
	mov	ecx, DWORD PTR __$ArrayPad$[ebp]
	xor	ecx, ebp
	call	@__security_check_cookie@4
	add	esp, 264				; 00000108H
	cmp	ebp, esp
	call	__RTC_CheckEsp
	mov	esp, ebp
	pop	ebp
	ret	0
?UpdateScene@@YAXM@Z ENDP				; UpdateScene
_TEXT	ENDS
; Function compile flags: /Odtp /RTCsu /ZI
; File c:\users\simon\documents\visual studio 2012\projects\stereoscopic\stereoscopic.cpp
;	COMDAT ?InitScene@@YA_NXZ
_TEXT	SEGMENT
tv374 = -1172						; size = 4
tv359 = -1172						; size = 4
tv344 = -1172						; size = 4
tv329 = -1172						; size = 4
tv282 = -1172						; size = 4
tv267 = -1172						; size = 4
tv256 = -1172						; size = 4
tv236 = -1172						; size = 4
tv216 = -1172						; size = 4
tv196 = -1172						; size = 4
tv176 = -1172						; size = 4
tv156 = -1172						; size = 4
tv86 = -1172						; size = 4
$T2 = -1164						; size = 12
$T3 = -1144						; size = 12
$T4 = -1124						; size = 28
$T5 = -1088						; size = 28
$T6 = -1052						; size = 28
$T7 = -1016						; size = 28
$T8 = -980						; size = 28
$T9 = -944						; size = 28
$T10 = -908						; size = 12
$T11 = -888						; size = 12
$T12 = -868						; size = 12
$T13 = -848						; size = 12
$T14 = -828						; size = 12
$T15 = -808						; size = 4
$T16 = -796						; size = 4
$T17 = -784						; size = 12
$T18 = -764						; size = 12
$T19 = -744						; size = 4
$T20 = -732						; size = 4
$T21 = -720						; size = 12
$T22 = -700						; size = 12
$T23 = -680						; size = 4
$T24 = -668						; size = 4
$T25 = -656						; size = 12
$T26 = -636						; size = 12
$T27 = -616						; size = 4
$T28 = -604						; size = 4
$T29 = -592						; size = 12
$T30 = -572						; size = 12
$T31 = -552						; size = 4
$T32 = -540						; size = 4
$T33 = -528						; size = 12
$T34 = -508						; size = 12
$T35 = -488						; size = 4
$T36 = -476						; size = 4
$T37 = -464						; size = 12
$T38 = -444						; size = 12
$T39 = -424						; size = 4
$T40 = -412						; size = 4
$T41 = -400						; size = 12
$T42 = -380						; size = 12
$T43 = -357						; size = 1
$T44 = -345						; size = 1
$T45 = -333						; size = 1
$T46 = -321						; size = 1
$T47 = -309						; size = 1
$T48 = -297						; size = 1
_srDesc$ = -96						; size = 24
_textureDesc$ = -64					; size = 44
__$ArrayPad$ = -16					; size = 4
__$EHRec$ = -12						; size = 12
?InitScene@@YA_NXZ PROC					; InitScene, COMDAT

; 310  : {

	push	ebp
	mov	ebp, esp
	push	-1
	push	__ehhandler$?InitScene@@YA_NXZ
	mov	eax, DWORD PTR fs:0
	push	eax
	sub	esp, 1160				; 00000488H
	push	ebx
	push	esi
	push	edi
	lea	edi, DWORD PTR [ebp-1172]
	mov	ecx, 290				; 00000122H
	mov	eax, -858993460				; ccccccccH
	rep stosd
	mov	eax, DWORD PTR ___security_cookie
	xor	eax, ebp
	mov	DWORD PTR __$ArrayPad$[ebp], eax
	push	eax
	lea	eax, DWORD PTR __$EHRec$[ebp]
	mov	DWORD PTR fs:0, eax

; 311  : 	///////////////////
; 312  : 	// Create cameras
; 313  : 
; 314  : 	// Only using one camera, will split into a left and right camera at render-time
; 315  : 	MainCamera = new CCamera();

	push	304					; 00000130H
	call	??2@YAPAXI@Z				; operator new
	add	esp, 4
	mov	DWORD PTR $T16[ebp], eax
	mov	DWORD PTR __$EHRec$[ebp+8], 0
	cmp	DWORD PTR $T16[ebp], 0
	je	$LN20@InitScene
	push	ecx
	movss	xmm0, DWORD PTR __real@47435000
	movss	DWORD PTR [esp], xmm0
	push	ecx
	movss	xmm0, DWORD PTR __real@3f800000
	movss	DWORD PTR [esp], xmm0
	push	ecx
	movss	xmm0, DWORD PTR __real@3f490fdb
	movss	DWORD PTR [esp], xmm0
	push	ecx
	movss	xmm0, DWORD PTR __real@00000000
	movss	DWORD PTR [esp], xmm0
	push	ecx
	movss	xmm0, DWORD PTR __real@00000000
	movss	DWORD PTR [esp], xmm0
	push	ecx
	movss	xmm0, DWORD PTR __real@00000000
	movss	DWORD PTR [esp], xmm0
	lea	ecx, DWORD PTR $T17[ebp]
	call	??0D3DXVECTOR3@@QAE@MMM@Z		; D3DXVECTOR3::D3DXVECTOR3
	sub	esp, 12					; 0000000cH
	mov	ecx, esp
	mov	edx, DWORD PTR [eax]
	mov	DWORD PTR [ecx], edx
	mov	edx, DWORD PTR [eax+4]
	mov	DWORD PTR [ecx+4], edx
	mov	eax, DWORD PTR [eax+8]
	mov	DWORD PTR [ecx+8], eax
	push	ecx
	movss	xmm0, DWORD PTR __real@00000000
	movss	DWORD PTR [esp], xmm0
	push	ecx
	movss	xmm0, DWORD PTR __real@00000000
	movss	DWORD PTR [esp], xmm0
	push	ecx
	movss	xmm0, DWORD PTR __real@00000000
	movss	DWORD PTR [esp], xmm0
	lea	ecx, DWORD PTR $T18[ebp]
	call	??0D3DXVECTOR3@@QAE@MMM@Z		; D3DXVECTOR3::D3DXVECTOR3
	sub	esp, 12					; 0000000cH
	mov	ecx, esp
	mov	edx, DWORD PTR [eax]
	mov	DWORD PTR [ecx], edx
	mov	edx, DWORD PTR [eax+4]
	mov	DWORD PTR [ecx+4], edx
	mov	eax, DWORD PTR [eax+8]
	mov	DWORD PTR [ecx+8], eax
	mov	ecx, DWORD PTR $T16[ebp]
	call	??0CCamera@@QAE@UD3DXVECTOR3@@0MMM@Z	; CCamera::CCamera
	mov	DWORD PTR tv86[ebp], eax
	jmp	SHORT $LN21@InitScene
$LN20@InitScene:
	mov	DWORD PTR tv86[ebp], 0
$LN21@InitScene:
	mov	ecx, DWORD PTR tv86[ebp]
	mov	DWORD PTR $T15[ebp], ecx
	mov	DWORD PTR __$EHRec$[ebp+8], -1
	mov	edx, DWORD PTR $T15[ebp]
	mov	DWORD PTR ?MainCamera@@3PAVCCamera@@A, edx ; MainCamera

; 316  : 	MainCamera->SetPosition( D3DXVECTOR3(-15, 35,-70) );

	push	ecx
	movss	xmm0, DWORD PTR __real@c28c0000
	movss	DWORD PTR [esp], xmm0
	push	ecx
	movss	xmm0, DWORD PTR __real@420c0000
	movss	DWORD PTR [esp], xmm0
	push	ecx
	movss	xmm0, DWORD PTR __real@c1700000
	movss	DWORD PTR [esp], xmm0
	lea	ecx, DWORD PTR $T2[ebp]
	call	??0D3DXVECTOR3@@QAE@MMM@Z		; D3DXVECTOR3::D3DXVECTOR3
	sub	esp, 12					; 0000000cH
	mov	ecx, esp
	mov	edx, DWORD PTR [eax]
	mov	DWORD PTR [ecx], edx
	mov	edx, DWORD PTR [eax+4]
	mov	DWORD PTR [ecx+4], edx
	mov	eax, DWORD PTR [eax+8]
	mov	DWORD PTR [ecx+8], eax
	mov	ecx, DWORD PTR ?MainCamera@@3PAVCCamera@@A ; MainCamera
	call	?SetPosition@CCamera@@QAEXUD3DXVECTOR3@@@Z ; CCamera::SetPosition

; 317  : 	MainCamera->SetRotation( D3DXVECTOR3(ToRadians(10.0f), ToRadians(18.0f), 0.0f) ); // ToRadians is a new helper function to convert degrees to radians

	push	ecx
	movss	xmm0, DWORD PTR __real@00000000
	movss	DWORD PTR [esp], xmm0
	push	ecx
	movss	xmm0, DWORD PTR __real@41900000
	movss	DWORD PTR [esp], xmm0
	call	?ToRadians@@YAMM@Z			; ToRadians
	fstp	DWORD PTR [esp]
	push	ecx
	movss	xmm0, DWORD PTR __real@41200000
	movss	DWORD PTR [esp], xmm0
	call	?ToRadians@@YAMM@Z			; ToRadians
	fstp	DWORD PTR [esp]
	lea	ecx, DWORD PTR $T3[ebp]
	call	??0D3DXVECTOR3@@QAE@MMM@Z		; D3DXVECTOR3::D3DXVECTOR3
	sub	esp, 12					; 0000000cH
	mov	ecx, esp
	mov	edx, DWORD PTR [eax]
	mov	DWORD PTR [ecx], edx
	mov	edx, DWORD PTR [eax+4]
	mov	DWORD PTR [ecx+4], edx
	mov	eax, DWORD PTR [eax+8]
	mov	DWORD PTR [ecx+8], eax
	mov	ecx, DWORD PTR ?MainCamera@@3PAVCCamera@@A ; MainCamera
	call	?SetRotation@CCamera@@QAEXUD3DXVECTOR3@@@Z ; CCamera::SetRotation

; 318  : 
; 319  : 
; 320  : 	///////////////////////
; 321  : 	// Load/Create models
; 322  : 
; 323  : 	Cube   = new CModel;

	push	1936					; 00000790H
	call	??2@YAPAXI@Z				; operator new
	add	esp, 4
	mov	DWORD PTR $T20[ebp], eax
	mov	DWORD PTR __$EHRec$[ebp+8], 1
	cmp	DWORD PTR $T20[ebp], 0
	je	$LN22@InitScene
	push	ecx
	movss	xmm0, DWORD PTR __real@3f800000
	movss	DWORD PTR [esp], xmm0
	push	ecx
	movss	xmm0, DWORD PTR __real@00000000
	movss	DWORD PTR [esp], xmm0
	push	ecx
	movss	xmm0, DWORD PTR __real@00000000
	movss	DWORD PTR [esp], xmm0
	push	ecx
	movss	xmm0, DWORD PTR __real@00000000
	movss	DWORD PTR [esp], xmm0
	lea	ecx, DWORD PTR $T21[ebp]
	call	??0D3DXVECTOR3@@QAE@MMM@Z		; D3DXVECTOR3::D3DXVECTOR3
	sub	esp, 12					; 0000000cH
	mov	ecx, esp
	mov	edx, DWORD PTR [eax]
	mov	DWORD PTR [ecx], edx
	mov	edx, DWORD PTR [eax+4]
	mov	DWORD PTR [ecx+4], edx
	mov	eax, DWORD PTR [eax+8]
	mov	DWORD PTR [ecx+8], eax
	push	ecx
	movss	xmm0, DWORD PTR __real@00000000
	movss	DWORD PTR [esp], xmm0
	push	ecx
	movss	xmm0, DWORD PTR __real@00000000
	movss	DWORD PTR [esp], xmm0
	push	ecx
	movss	xmm0, DWORD PTR __real@00000000
	movss	DWORD PTR [esp], xmm0
	lea	ecx, DWORD PTR $T22[ebp]
	call	??0D3DXVECTOR3@@QAE@MMM@Z		; D3DXVECTOR3::D3DXVECTOR3
	sub	esp, 12					; 0000000cH
	mov	ecx, esp
	mov	edx, DWORD PTR [eax]
	mov	DWORD PTR [ecx], edx
	mov	edx, DWORD PTR [eax+4]
	mov	DWORD PTR [ecx+4], edx
	mov	eax, DWORD PTR [eax+8]
	mov	DWORD PTR [ecx+8], eax
	mov	ecx, DWORD PTR $T20[ebp]
	call	??0CModel@@QAE@UD3DXVECTOR3@@0M@Z	; CModel::CModel
	mov	DWORD PTR tv156[ebp], eax
	jmp	SHORT $LN23@InitScene
$LN22@InitScene:
	mov	DWORD PTR tv156[ebp], 0
$LN23@InitScene:
	mov	ecx, DWORD PTR tv156[ebp]
	mov	DWORD PTR $T19[ebp], ecx
	mov	DWORD PTR __$EHRec$[ebp+8], -1
	mov	edx, DWORD PTR $T19[ebp]
	mov	DWORD PTR ?Cube@@3PAVCModel@@A, edx	; Cube

; 324  : 	Stars = new CModel;

	push	1936					; 00000790H
	call	??2@YAPAXI@Z				; operator new
	add	esp, 4
	mov	DWORD PTR $T24[ebp], eax
	mov	DWORD PTR __$EHRec$[ebp+8], 2
	cmp	DWORD PTR $T24[ebp], 0
	je	$LN24@InitScene
	push	ecx
	movss	xmm0, DWORD PTR __real@3f800000
	movss	DWORD PTR [esp], xmm0
	push	ecx
	movss	xmm0, DWORD PTR __real@00000000
	movss	DWORD PTR [esp], xmm0
	push	ecx
	movss	xmm0, DWORD PTR __real@00000000
	movss	DWORD PTR [esp], xmm0
	push	ecx
	movss	xmm0, DWORD PTR __real@00000000
	movss	DWORD PTR [esp], xmm0
	lea	ecx, DWORD PTR $T25[ebp]
	call	??0D3DXVECTOR3@@QAE@MMM@Z		; D3DXVECTOR3::D3DXVECTOR3
	sub	esp, 12					; 0000000cH
	mov	ecx, esp
	mov	edx, DWORD PTR [eax]
	mov	DWORD PTR [ecx], edx
	mov	edx, DWORD PTR [eax+4]
	mov	DWORD PTR [ecx+4], edx
	mov	eax, DWORD PTR [eax+8]
	mov	DWORD PTR [ecx+8], eax
	push	ecx
	movss	xmm0, DWORD PTR __real@00000000
	movss	DWORD PTR [esp], xmm0
	push	ecx
	movss	xmm0, DWORD PTR __real@00000000
	movss	DWORD PTR [esp], xmm0
	push	ecx
	movss	xmm0, DWORD PTR __real@00000000
	movss	DWORD PTR [esp], xmm0
	lea	ecx, DWORD PTR $T26[ebp]
	call	??0D3DXVECTOR3@@QAE@MMM@Z		; D3DXVECTOR3::D3DXVECTOR3
	sub	esp, 12					; 0000000cH
	mov	ecx, esp
	mov	edx, DWORD PTR [eax]
	mov	DWORD PTR [ecx], edx
	mov	edx, DWORD PTR [eax+4]
	mov	DWORD PTR [ecx+4], edx
	mov	eax, DWORD PTR [eax+8]
	mov	DWORD PTR [ecx+8], eax
	mov	ecx, DWORD PTR $T24[ebp]
	call	??0CModel@@QAE@UD3DXVECTOR3@@0M@Z	; CModel::CModel
	mov	DWORD PTR tv176[ebp], eax
	jmp	SHORT $LN25@InitScene
$LN24@InitScene:
	mov	DWORD PTR tv176[ebp], 0
$LN25@InitScene:
	mov	ecx, DWORD PTR tv176[ebp]
	mov	DWORD PTR $T23[ebp], ecx
	mov	DWORD PTR __$EHRec$[ebp+8], -1
	mov	edx, DWORD PTR $T23[ebp]
	mov	DWORD PTR ?Stars@@3PAVCModel@@A, edx	; Stars

; 325  : 	Crate  = new CModel;

